ARM GAS  C:\Users\JEFFSN~1\AppData\Local\Temp\ccG3vFpC.s 			page 1


   1              		.syntax unified
   2              		.cpu cortex-m3
   3              		.fpu softvfp
   4              		.eabi_attribute 20, 1
   5              		.eabi_attribute 21, 1
   6              		.eabi_attribute 23, 3
   7              		.eabi_attribute 24, 1
   8              		.eabi_attribute 25, 1
   9              		.eabi_attribute 26, 1
  10              		.eabi_attribute 30, 1
  11              		.eabi_attribute 34, 1
  12              		.eabi_attribute 18, 4
  13              		.thumb
  14              		.syntax unified
  15              		.file	"CapSense_CSHL.c"
  16              		.text
  17              	.Ltext0:
  18              		.cfi_sections	.debug_frame
  19              		.section	.text.CapSense_BaseInit,"ax",%progbits
  20              		.align	2
  21              		.global	CapSense_BaseInit
  22              		.thumb
  23              		.thumb_func
  24              		.type	CapSense_BaseInit, %function
  25              	CapSense_BaseInit:
  26              	.LFB0:
  27              		.file 1 "Generated_Source\\PSoC5\\CapSense_CSHL.c"
   1:Generated_Source\PSoC5/CapSense_CSHL.c **** /*******************************************************************************
   2:Generated_Source\PSoC5/CapSense_CSHL.c **** * File Name: CapSense_CSHL.c
   3:Generated_Source\PSoC5/CapSense_CSHL.c **** * Version 3.50
   4:Generated_Source\PSoC5/CapSense_CSHL.c **** *
   5:Generated_Source\PSoC5/CapSense_CSHL.c **** * Description:
   6:Generated_Source\PSoC5/CapSense_CSHL.c **** *  This file provides the source code to the High Level APIs for the CapSesne
   7:Generated_Source\PSoC5/CapSense_CSHL.c **** *  CSD component.
   8:Generated_Source\PSoC5/CapSense_CSHL.c **** *
   9:Generated_Source\PSoC5/CapSense_CSHL.c **** * Note:
  10:Generated_Source\PSoC5/CapSense_CSHL.c **** *
  11:Generated_Source\PSoC5/CapSense_CSHL.c **** ********************************************************************************
  12:Generated_Source\PSoC5/CapSense_CSHL.c **** * Copyright 2008-2013, Cypress Semiconductor Corporation.  All rights reserved.
  13:Generated_Source\PSoC5/CapSense_CSHL.c **** * You may use this file only in accordance with the license, terms, conditions,
  14:Generated_Source\PSoC5/CapSense_CSHL.c **** * disclaimers, and limitations in the end user license agreement accompanying
  15:Generated_Source\PSoC5/CapSense_CSHL.c **** * the software package with which this file was provided.
  16:Generated_Source\PSoC5/CapSense_CSHL.c **** *******************************************************************************/
  17:Generated_Source\PSoC5/CapSense_CSHL.c **** 
  18:Generated_Source\PSoC5/CapSense_CSHL.c **** #include "CapSense_CSHL.h"
  19:Generated_Source\PSoC5/CapSense_CSHL.c **** 
  20:Generated_Source\PSoC5/CapSense_CSHL.c **** /* Storage of filters data */
  21:Generated_Source\PSoC5/CapSense_CSHL.c **** #if ( (CapSense_RAW_FILTER_MASK & CapSense_MEDIAN_FILTER) | \
  22:Generated_Source\PSoC5/CapSense_CSHL.c ****       (CapSense_RAW_FILTER_MASK & CapSense_AVERAGING_FILTER) )
  23:Generated_Source\PSoC5/CapSense_CSHL.c **** 
  24:Generated_Source\PSoC5/CapSense_CSHL.c ****     uint16 CapSense_rawFilterData1[CapSense_TOTAL_SENSOR_COUNT];
  25:Generated_Source\PSoC5/CapSense_CSHL.c ****     uint16 CapSense_rawFilterData2[CapSense_TOTAL_SENSOR_COUNT];
  26:Generated_Source\PSoC5/CapSense_CSHL.c **** 
  27:Generated_Source\PSoC5/CapSense_CSHL.c **** #elif ( (CapSense_RAW_FILTER_MASK & CapSense_IIR2_FILTER)   | \
  28:Generated_Source\PSoC5/CapSense_CSHL.c ****         (CapSense_RAW_FILTER_MASK & CapSense_IIR4_FILTER)   | \
  29:Generated_Source\PSoC5/CapSense_CSHL.c ****         (CapSense_RAW_FILTER_MASK & CapSense_JITTER_FILTER) | \
  30:Generated_Source\PSoC5/CapSense_CSHL.c ****         (CapSense_RAW_FILTER_MASK & CapSense_IIR8_FILTER)   | \
ARM GAS  C:\Users\JEFFSN~1\AppData\Local\Temp\ccG3vFpC.s 			page 2


  31:Generated_Source\PSoC5/CapSense_CSHL.c ****         (CapSense_RAW_FILTER_MASK & CapSense_IIR16_FILTER) )
  32:Generated_Source\PSoC5/CapSense_CSHL.c ****         
  33:Generated_Source\PSoC5/CapSense_CSHL.c ****     uint16 CapSense_rawFilterData1[CapSense_TOTAL_SENSOR_COUNT];
  34:Generated_Source\PSoC5/CapSense_CSHL.c **** 
  35:Generated_Source\PSoC5/CapSense_CSHL.c **** #else
  36:Generated_Source\PSoC5/CapSense_CSHL.c ****     /* No Raw filters */
  37:Generated_Source\PSoC5/CapSense_CSHL.c **** #endif  /* ( (CapSense_RAW_FILTER_MASK & CapSense_MEDIAN_FILTER) || \
  38:Generated_Source\PSoC5/CapSense_CSHL.c ****         *    (CapSense_RAW_FILTER_MASK & CapSense_AVERAGING_FILTER) )
  39:Generated_Source\PSoC5/CapSense_CSHL.c ****         */
  40:Generated_Source\PSoC5/CapSense_CSHL.c **** 
  41:Generated_Source\PSoC5/CapSense_CSHL.c **** uint16 CapSense_sensorBaseline[CapSense_TOTAL_SENSOR_COUNT];
  42:Generated_Source\PSoC5/CapSense_CSHL.c **** uint8 CapSense_sensorBaselineLow[CapSense_TOTAL_SENSOR_COUNT];
  43:Generated_Source\PSoC5/CapSense_CSHL.c **** uint16 CapSense_sensorSignal[CapSense_TOTAL_SENSOR_COUNT];
  44:Generated_Source\PSoC5/CapSense_CSHL.c **** uint8 CapSense_sensorOnMask[(((CapSense_TOTAL_SENSOR_COUNT - 1u) / 8u) + 1u)];
  45:Generated_Source\PSoC5/CapSense_CSHL.c **** 
  46:Generated_Source\PSoC5/CapSense_CSHL.c **** uint8 CapSense_lowBaselineResetCnt[CapSense_TOTAL_SENSOR_COUNT];
  47:Generated_Source\PSoC5/CapSense_CSHL.c **** 
  48:Generated_Source\PSoC5/CapSense_CSHL.c **** uint16 CapSense_fingerThreshold[] = {
  49:Generated_Source\PSoC5/CapSense_CSHL.c ****     30u, 30u, 30u, 30u, 30u, 30u, 30u, 30u, 30u, 30u, 30u, 30u, 30u, 30u, 30u, 30u, 30u, 30u, 30u, 
  50:Generated_Source\PSoC5/CapSense_CSHL.c **** };
  51:Generated_Source\PSoC5/CapSense_CSHL.c **** 
  52:Generated_Source\PSoC5/CapSense_CSHL.c **** uint16 CapSense_noiseThreshold[] = {
  53:Generated_Source\PSoC5/CapSense_CSHL.c ****     13u, 13u, 13u, 13u, 13u, 13u, 13u, 13u, 13u, 13u, 13u, 13u, 13u, 13u, 13u, 13u, 13u, 13u, 13u, 
  54:Generated_Source\PSoC5/CapSense_CSHL.c **** };
  55:Generated_Source\PSoC5/CapSense_CSHL.c **** 
  56:Generated_Source\PSoC5/CapSense_CSHL.c **** uint16 CapSense_hysteresis[] = {
  57:Generated_Source\PSoC5/CapSense_CSHL.c ****     10u, 10u, 10u, 10u, 10u, 10u, 10u, 10u, 10u, 10u, 10u, 10u, 10u, 10u, 10u, 10u, 10u, 10u, 10u, 
  58:Generated_Source\PSoC5/CapSense_CSHL.c **** };
  59:Generated_Source\PSoC5/CapSense_CSHL.c **** 
  60:Generated_Source\PSoC5/CapSense_CSHL.c **** uint8 CapSense_debounce[] = {
  61:Generated_Source\PSoC5/CapSense_CSHL.c ****     3u, 3u, 5u, 5u, 5u, 5u, 5u, 5u, 5u, 5u, 5u, 5u, 5u, 5u, 5u, 5u, 5u, 5u, 5u, 5u, 5u, 5u, 5u, 5u,
  62:Generated_Source\PSoC5/CapSense_CSHL.c **** };
  63:Generated_Source\PSoC5/CapSense_CSHL.c **** 
  64:Generated_Source\PSoC5/CapSense_CSHL.c **** uint8 CapSense_debounceCounter[] = {
  65:Generated_Source\PSoC5/CapSense_CSHL.c ****     0u, 0u, 0u, 0u, 0u, 0u, 0u, 0u, 0u, 0u, 0u, 0u, 0u, 0u, 0u, 0u, 0u, 0u, 0u, 0u, 0u, 0u, 0u, 0u,
  66:Generated_Source\PSoC5/CapSense_CSHL.c **** };
  67:Generated_Source\PSoC5/CapSense_CSHL.c **** 
  68:Generated_Source\PSoC5/CapSense_CSHL.c **** const uint8 CYCODE CapSense_rawDataIndex[] = {
  69:Generated_Source\PSoC5/CapSense_CSHL.c ****     0u, /* Button0__BTN */
  70:Generated_Source\PSoC5/CapSense_CSHL.c ****     1u, /* Button1__BTN */
  71:Generated_Source\PSoC5/CapSense_CSHL.c ****     2u, /* Button2__BTN */
  72:Generated_Source\PSoC5/CapSense_CSHL.c ****     3u, /* Button3__BTN */
  73:Generated_Source\PSoC5/CapSense_CSHL.c ****     4u, /* Button4__BTN */
  74:Generated_Source\PSoC5/CapSense_CSHL.c ****     5u, /* Button5__BTN */
  75:Generated_Source\PSoC5/CapSense_CSHL.c ****     6u, /* Button6__BTN */
  76:Generated_Source\PSoC5/CapSense_CSHL.c ****     7u, /* Button7__BTN */
  77:Generated_Source\PSoC5/CapSense_CSHL.c ****     8u, /* Button8__BTN */
  78:Generated_Source\PSoC5/CapSense_CSHL.c ****     9u, /* Button9__BTN */
  79:Generated_Source\PSoC5/CapSense_CSHL.c ****     10u, /* Button10__BTN */
  80:Generated_Source\PSoC5/CapSense_CSHL.c ****     11u, /* Button11__BTN */
  81:Generated_Source\PSoC5/CapSense_CSHL.c ****     12u, /* Button12__BTN */
  82:Generated_Source\PSoC5/CapSense_CSHL.c ****     13u, /* Button13__BTN */
  83:Generated_Source\PSoC5/CapSense_CSHL.c ****     14u, /* Button14__BTN */
  84:Generated_Source\PSoC5/CapSense_CSHL.c ****     15u, /* Button15__BTN */
  85:Generated_Source\PSoC5/CapSense_CSHL.c ****     16u, /* Button16__BTN */
  86:Generated_Source\PSoC5/CapSense_CSHL.c ****     17u, /* Button17__BTN */
  87:Generated_Source\PSoC5/CapSense_CSHL.c ****     18u, /* Button18__BTN */
ARM GAS  C:\Users\JEFFSN~1\AppData\Local\Temp\ccG3vFpC.s 			page 3


  88:Generated_Source\PSoC5/CapSense_CSHL.c ****     19u, /* Button19__BTN */
  89:Generated_Source\PSoC5/CapSense_CSHL.c ****     20u, /* Button20__BTN */
  90:Generated_Source\PSoC5/CapSense_CSHL.c ****     21u, /* Button21__BTN */
  91:Generated_Source\PSoC5/CapSense_CSHL.c ****     22u, /* Button22__BTN */
  92:Generated_Source\PSoC5/CapSense_CSHL.c ****     23u, /* Button23__BTN */
  93:Generated_Source\PSoC5/CapSense_CSHL.c ****     24u, /* Button24__BTN */
  94:Generated_Source\PSoC5/CapSense_CSHL.c ****     25u, /* Button25__BTN */
  95:Generated_Source\PSoC5/CapSense_CSHL.c **** 
  96:Generated_Source\PSoC5/CapSense_CSHL.c **** };
  97:Generated_Source\PSoC5/CapSense_CSHL.c **** 
  98:Generated_Source\PSoC5/CapSense_CSHL.c **** const uint8 CYCODE CapSense_numberOfSensors[] = {
  99:Generated_Source\PSoC5/CapSense_CSHL.c ****     1u, /* Button0__BTN */
 100:Generated_Source\PSoC5/CapSense_CSHL.c ****     1u, /* Button1__BTN */
 101:Generated_Source\PSoC5/CapSense_CSHL.c ****     1u, /* Button2__BTN */
 102:Generated_Source\PSoC5/CapSense_CSHL.c ****     1u, /* Button3__BTN */
 103:Generated_Source\PSoC5/CapSense_CSHL.c ****     1u, /* Button4__BTN */
 104:Generated_Source\PSoC5/CapSense_CSHL.c ****     1u, /* Button5__BTN */
 105:Generated_Source\PSoC5/CapSense_CSHL.c ****     1u, /* Button6__BTN */
 106:Generated_Source\PSoC5/CapSense_CSHL.c ****     1u, /* Button7__BTN */
 107:Generated_Source\PSoC5/CapSense_CSHL.c ****     1u, /* Button8__BTN */
 108:Generated_Source\PSoC5/CapSense_CSHL.c ****     1u, /* Button9__BTN */
 109:Generated_Source\PSoC5/CapSense_CSHL.c ****     1u, /* Button10__BTN */
 110:Generated_Source\PSoC5/CapSense_CSHL.c ****     1u, /* Button11__BTN */
 111:Generated_Source\PSoC5/CapSense_CSHL.c ****     1u, /* Button12__BTN */
 112:Generated_Source\PSoC5/CapSense_CSHL.c ****     1u, /* Button13__BTN */
 113:Generated_Source\PSoC5/CapSense_CSHL.c ****     1u, /* Button14__BTN */
 114:Generated_Source\PSoC5/CapSense_CSHL.c ****     1u, /* Button15__BTN */
 115:Generated_Source\PSoC5/CapSense_CSHL.c ****     1u, /* Button16__BTN */
 116:Generated_Source\PSoC5/CapSense_CSHL.c ****     1u, /* Button17__BTN */
 117:Generated_Source\PSoC5/CapSense_CSHL.c ****     1u, /* Button18__BTN */
 118:Generated_Source\PSoC5/CapSense_CSHL.c ****     1u, /* Button19__BTN */
 119:Generated_Source\PSoC5/CapSense_CSHL.c ****     1u, /* Button20__BTN */
 120:Generated_Source\PSoC5/CapSense_CSHL.c ****     1u, /* Button21__BTN */
 121:Generated_Source\PSoC5/CapSense_CSHL.c ****     1u, /* Button22__BTN */
 122:Generated_Source\PSoC5/CapSense_CSHL.c ****     1u, /* Button23__BTN */
 123:Generated_Source\PSoC5/CapSense_CSHL.c ****     1u, /* Button24__BTN */
 124:Generated_Source\PSoC5/CapSense_CSHL.c ****     1u, /* Button25__BTN */
 125:Generated_Source\PSoC5/CapSense_CSHL.c **** 
 126:Generated_Source\PSoC5/CapSense_CSHL.c **** };
 127:Generated_Source\PSoC5/CapSense_CSHL.c **** 
 128:Generated_Source\PSoC5/CapSense_CSHL.c **** 
 129:Generated_Source\PSoC5/CapSense_CSHL.c **** 
 130:Generated_Source\PSoC5/CapSense_CSHL.c **** 
 131:Generated_Source\PSoC5/CapSense_CSHL.c **** /*******************************************************************************
 132:Generated_Source\PSoC5/CapSense_CSHL.c **** * Function Name: CapSense_BaseInit
 133:Generated_Source\PSoC5/CapSense_CSHL.c **** ********************************************************************************
 134:Generated_Source\PSoC5/CapSense_CSHL.c **** *
 135:Generated_Source\PSoC5/CapSense_CSHL.c **** * Summary:
 136:Generated_Source\PSoC5/CapSense_CSHL.c **** *  Loads the CapSense_sensorBaseline[sensor] array element with an 
 137:Generated_Source\PSoC5/CapSense_CSHL.c **** *  initial value which is equal to raw count value. 
 138:Generated_Source\PSoC5/CapSense_CSHL.c **** *  Resets to zero CapSense_sensorBaselineLow[sensor] and 
 139:Generated_Source\PSoC5/CapSense_CSHL.c **** *  CapSense_sensorSignal[sensor] array element.
 140:Generated_Source\PSoC5/CapSense_CSHL.c **** *  Loads CapSense_debounceCounter[sensor] array element with initial 
 141:Generated_Source\PSoC5/CapSense_CSHL.c **** *  value equal CapSense_debounce[].
 142:Generated_Source\PSoC5/CapSense_CSHL.c **** *  Loads the CapSense_rawFilterData2[sensor] and 
 143:Generated_Source\PSoC5/CapSense_CSHL.c **** *  CapSense_rawFilterData2[sensor] array element with an 
 144:Generated_Source\PSoC5/CapSense_CSHL.c **** *  initial value which is equal raw count value if raw data filter is enabled.
ARM GAS  C:\Users\JEFFSN~1\AppData\Local\Temp\ccG3vFpC.s 			page 4


 145:Generated_Source\PSoC5/CapSense_CSHL.c **** *
 146:Generated_Source\PSoC5/CapSense_CSHL.c **** * Parameters:
 147:Generated_Source\PSoC5/CapSense_CSHL.c **** *  sensor:  Sensor number.
 148:Generated_Source\PSoC5/CapSense_CSHL.c **** *
 149:Generated_Source\PSoC5/CapSense_CSHL.c **** * Return:
 150:Generated_Source\PSoC5/CapSense_CSHL.c **** *  None
 151:Generated_Source\PSoC5/CapSense_CSHL.c **** *
 152:Generated_Source\PSoC5/CapSense_CSHL.c **** * Global Variables:
 153:Generated_Source\PSoC5/CapSense_CSHL.c **** *  CapSense_sensorBaseline[]    - used to store baseline value.
 154:Generated_Source\PSoC5/CapSense_CSHL.c **** *  CapSense_sensorBaselineLow[] - used to store fraction byte of 
 155:Generated_Source\PSoC5/CapSense_CSHL.c **** *  baseline value.
 156:Generated_Source\PSoC5/CapSense_CSHL.c **** *  CapSense_sensorSignal[]      - used to store diffence between 
 157:Generated_Source\PSoC5/CapSense_CSHL.c **** *  current value of raw data and previous value of baseline.
 158:Generated_Source\PSoC5/CapSense_CSHL.c **** *  CapSense_debounceCounter[]   - used to store current debounce 
 159:Generated_Source\PSoC5/CapSense_CSHL.c **** *  counter of sensor. Widget which has this parameter are buttons, matrix 
 160:Generated_Source\PSoC5/CapSense_CSHL.c **** *  buttons, proximity, guard. All other widgets haven't debounce parameter
 161:Generated_Source\PSoC5/CapSense_CSHL.c **** *  and use the last element of this array with value 0 (it means no debounce).
 162:Generated_Source\PSoC5/CapSense_CSHL.c **** *  CapSense_rawFilterData1[]    - used to store previous sample of 
 163:Generated_Source\PSoC5/CapSense_CSHL.c **** *  any enabled raw data filter.
 164:Generated_Source\PSoC5/CapSense_CSHL.c **** *  CapSense_rawFilterData2[]    - used to store before previous sample
 165:Generated_Source\PSoC5/CapSense_CSHL.c **** *  of enabled raw data filter. Only required for median or average filters.
 166:Generated_Source\PSoC5/CapSense_CSHL.c **** *
 167:Generated_Source\PSoC5/CapSense_CSHL.c **** * Reentrant:
 168:Generated_Source\PSoC5/CapSense_CSHL.c **** *  No
 169:Generated_Source\PSoC5/CapSense_CSHL.c **** *
 170:Generated_Source\PSoC5/CapSense_CSHL.c **** *******************************************************************************/
 171:Generated_Source\PSoC5/CapSense_CSHL.c **** void CapSense_BaseInit(uint8 sensor) 
 172:Generated_Source\PSoC5/CapSense_CSHL.c **** {
  28              		.loc 1 172 0
  29              		.cfi_startproc
  30              		@ args = 0, pretend = 0, frame = 0
  31              		@ frame_needed = 0, uses_anonymous_args = 0
  32              		@ link register save eliminated.
  33              	.LVL0:
  34 0000 10B4     		push	{r4}
  35              		.cfi_def_cfa_offset 4
  36              		.cfi_offset 4, -4
 173:Generated_Source\PSoC5/CapSense_CSHL.c ****     #if ((CapSense_TOTAL_BUTTONS_COUNT) || (CapSense_TOTAL_MATRIX_BUTTONS_COUNT) || \
 174:Generated_Source\PSoC5/CapSense_CSHL.c ****          (CapSense_TOTAL_GENERICS_COUNT))
 175:Generated_Source\PSoC5/CapSense_CSHL.c ****         uint8 widget = CapSense_widgetNumber[sensor];
  37              		.loc 1 175 0
  38 0002 0B4B     		ldr	r3, .L3
  39 0004 1A5C     		ldrb	r2, [r3, r0]	@ zero_extendqisi2
  40              	.LVL1:
 176:Generated_Source\PSoC5/CapSense_CSHL.c ****     #endif /* ((CapSense_TOTAL_MATRIX_BUTTONS_COUNT) || (CapSense_TOTAL_MATRIX_BUTTONS_COUNT)) */
 177:Generated_Source\PSoC5/CapSense_CSHL.c ****     
 178:Generated_Source\PSoC5/CapSense_CSHL.c ****     #if (CapSense_TOTAL_MATRIX_BUTTONS_COUNT)
 179:Generated_Source\PSoC5/CapSense_CSHL.c ****         uint8 debounceIndex;
 180:Generated_Source\PSoC5/CapSense_CSHL.c ****     #endif  /* (CapSense_TOTAL_MATRIX_BUTTONS_COUNT) */
 181:Generated_Source\PSoC5/CapSense_CSHL.c ****     
 182:Generated_Source\PSoC5/CapSense_CSHL.c ****     #if (CapSense_TOTAL_GENERICS_COUNT)
 183:Generated_Source\PSoC5/CapSense_CSHL.c ****         /* Exclude generic widget */
 184:Generated_Source\PSoC5/CapSense_CSHL.c ****         if(widget < CapSense_END_OF_WIDGETS_INDEX)
 185:Generated_Source\PSoC5/CapSense_CSHL.c ****         {
 186:Generated_Source\PSoC5/CapSense_CSHL.c ****     #endif  /* CapSense_TOTAL_GENERICS_COUNT */
 187:Generated_Source\PSoC5/CapSense_CSHL.c ****     
 188:Generated_Source\PSoC5/CapSense_CSHL.c ****     /* Initialize Baseline */
ARM GAS  C:\Users\JEFFSN~1\AppData\Local\Temp\ccG3vFpC.s 			page 5


 189:Generated_Source\PSoC5/CapSense_CSHL.c ****     CapSense_sensorBaseline[sensor] = CapSense_sensorRaw[sensor];
  41              		.loc 1 189 0
  42 0006 0B4B     		ldr	r3, .L3+4
  43 0008 33F81030 		ldrh	r3, [r3, r0, lsl #1]
  44 000c 0A49     		ldr	r1, .L3+8
  45 000e 21F81030 		strh	r3, [r1, r0, lsl #1]	@ movhi
 190:Generated_Source\PSoC5/CapSense_CSHL.c ****     CapSense_sensorBaselineLow[sensor] = 0u;
  46              		.loc 1 190 0
  47 0012 0021     		movs	r1, #0
  48 0014 094C     		ldr	r4, .L3+12
  49 0016 2154     		strb	r1, [r4, r0]
 191:Generated_Source\PSoC5/CapSense_CSHL.c ****     CapSense_sensorSignal[sensor] = 0u;
  50              		.loc 1 191 0
  51 0018 094C     		ldr	r4, .L3+16
  52 001a 24F81010 		strh	r1, [r4, r0, lsl #1]	@ movhi
 192:Generated_Source\PSoC5/CapSense_CSHL.c ****         
 193:Generated_Source\PSoC5/CapSense_CSHL.c ****     CapSense_debounceCounter[widget] =  CapSense_debounce[widget];
  53              		.loc 1 193 0
  54 001e 0949     		ldr	r1, .L3+20
  55 0020 8C5C     		ldrb	r4, [r1, r2]	@ zero_extendqisi2
  56 0022 0949     		ldr	r1, .L3+24
  57 0024 8C54     		strb	r4, [r1, r2]
 194:Generated_Source\PSoC5/CapSense_CSHL.c **** 
 195:Generated_Source\PSoC5/CapSense_CSHL.c ****     
 196:Generated_Source\PSoC5/CapSense_CSHL.c ****     #if ((CapSense_RAW_FILTER_MASK & CapSense_MEDIAN_FILTER) |\
 197:Generated_Source\PSoC5/CapSense_CSHL.c ****          (CapSense_RAW_FILTER_MASK & CapSense_AVERAGING_FILTER))
 198:Generated_Source\PSoC5/CapSense_CSHL.c **** 
 199:Generated_Source\PSoC5/CapSense_CSHL.c ****         CapSense_rawFilterData1[sensor] = CapSense_sensorRaw[sensor];
 200:Generated_Source\PSoC5/CapSense_CSHL.c ****         CapSense_rawFilterData2[sensor] = CapSense_sensorRaw[sensor];
 201:Generated_Source\PSoC5/CapSense_CSHL.c ****     
 202:Generated_Source\PSoC5/CapSense_CSHL.c ****     #elif ((CapSense_RAW_FILTER_MASK & CapSense_IIR2_FILTER) |\
 203:Generated_Source\PSoC5/CapSense_CSHL.c ****            (CapSense_RAW_FILTER_MASK & CapSense_IIR4_FILTER) |\
 204:Generated_Source\PSoC5/CapSense_CSHL.c ****            (CapSense_RAW_FILTER_MASK & CapSense_JITTER_FILTER) |\
 205:Generated_Source\PSoC5/CapSense_CSHL.c ****            (CapSense_RAW_FILTER_MASK & CapSense_IIR8_FILTER) |\
 206:Generated_Source\PSoC5/CapSense_CSHL.c ****            (CapSense_RAW_FILTER_MASK & CapSense_IIR16_FILTER))
 207:Generated_Source\PSoC5/CapSense_CSHL.c ****             
 208:Generated_Source\PSoC5/CapSense_CSHL.c ****         CapSense_rawFilterData1[sensor] = CapSense_sensorRaw[sensor];
  58              		.loc 1 208 0
  59 0026 094A     		ldr	r2, .L3+28
  60              	.LVL2:
  61 0028 22F81030 		strh	r3, [r2, r0, lsl #1]	@ movhi
 209:Generated_Source\PSoC5/CapSense_CSHL.c ****     
 210:Generated_Source\PSoC5/CapSense_CSHL.c ****     #else
 211:Generated_Source\PSoC5/CapSense_CSHL.c ****         /* No Raw filters */
 212:Generated_Source\PSoC5/CapSense_CSHL.c ****     #endif  /* ((CapSense_RAW_FILTER_MASK & CapSense_MEDIAN_FILTER) | \
 213:Generated_Source\PSoC5/CapSense_CSHL.c ****             *   (CapSense_RAW_FILTER_MASK & CapSense_AVERAGING_FILTER))
 214:Generated_Source\PSoC5/CapSense_CSHL.c ****             */
 215:Generated_Source\PSoC5/CapSense_CSHL.c ****     
 216:Generated_Source\PSoC5/CapSense_CSHL.c ****     #if (CapSense_TOTAL_GENERICS_COUNT)
 217:Generated_Source\PSoC5/CapSense_CSHL.c ****         /* Exclude generic widget */
 218:Generated_Source\PSoC5/CapSense_CSHL.c ****         }
 219:Generated_Source\PSoC5/CapSense_CSHL.c ****     #endif  /* CapSense_TOTAL_GENERICS_COUNT */
 220:Generated_Source\PSoC5/CapSense_CSHL.c **** }
  62              		.loc 1 220 0
  63 002c 10BC     		pop	{r4}
  64              		.cfi_restore 4
  65              		.cfi_def_cfa_offset 0
ARM GAS  C:\Users\JEFFSN~1\AppData\Local\Temp\ccG3vFpC.s 			page 6


  66 002e 7047     		bx	lr
  67              	.L4:
  68              		.align	2
  69              	.L3:
  70 0030 00000000 		.word	CapSense_widgetNumber
  71 0034 00000000 		.word	CapSense_sensorRaw
  72 0038 00000000 		.word	CapSense_sensorBaseline
  73 003c 00000000 		.word	CapSense_sensorBaselineLow
  74 0040 00000000 		.word	CapSense_sensorSignal
  75 0044 00000000 		.word	.LANCHOR0
  76 0048 00000000 		.word	.LANCHOR1
  77 004c 00000000 		.word	CapSense_rawFilterData1
  78              		.cfi_endproc
  79              	.LFE0:
  80              		.size	CapSense_BaseInit, .-CapSense_BaseInit
  81              		.section	.text.CapSense_InitializeSensorBaseline,"ax",%progbits
  82              		.align	2
  83              		.global	CapSense_InitializeSensorBaseline
  84              		.thumb
  85              		.thumb_func
  86              		.type	CapSense_InitializeSensorBaseline, %function
  87              	CapSense_InitializeSensorBaseline:
  88              	.LFB1:
 221:Generated_Source\PSoC5/CapSense_CSHL.c **** 
 222:Generated_Source\PSoC5/CapSense_CSHL.c **** 
 223:Generated_Source\PSoC5/CapSense_CSHL.c **** /*******************************************************************************
 224:Generated_Source\PSoC5/CapSense_CSHL.c **** * Function Name: CapSense_InitializeSensorBaseline
 225:Generated_Source\PSoC5/CapSense_CSHL.c **** ********************************************************************************
 226:Generated_Source\PSoC5/CapSense_CSHL.c **** *
 227:Generated_Source\PSoC5/CapSense_CSHL.c **** * Summary:
 228:Generated_Source\PSoC5/CapSense_CSHL.c **** *  Loads the CapSense_sensorBaseline[sensor] array element with an 
 229:Generated_Source\PSoC5/CapSense_CSHL.c **** *  initial value by scanning the selected sensor (one channel design) or pair 
 230:Generated_Source\PSoC5/CapSense_CSHL.c **** *  of sensors (two channels designs). The raw count value is copied into the 
 231:Generated_Source\PSoC5/CapSense_CSHL.c **** *  baseline array for each sensor. The raw data filters are initialized if 
 232:Generated_Source\PSoC5/CapSense_CSHL.c **** *  enabled.
 233:Generated_Source\PSoC5/CapSense_CSHL.c **** *
 234:Generated_Source\PSoC5/CapSense_CSHL.c **** * Parameters:
 235:Generated_Source\PSoC5/CapSense_CSHL.c **** *  sensor:  Sensor number.
 236:Generated_Source\PSoC5/CapSense_CSHL.c **** *
 237:Generated_Source\PSoC5/CapSense_CSHL.c **** * Return:
 238:Generated_Source\PSoC5/CapSense_CSHL.c **** *  None
 239:Generated_Source\PSoC5/CapSense_CSHL.c **** *
 240:Generated_Source\PSoC5/CapSense_CSHL.c **** * Reentrant:
 241:Generated_Source\PSoC5/CapSense_CSHL.c **** *  No
 242:Generated_Source\PSoC5/CapSense_CSHL.c **** *
 243:Generated_Source\PSoC5/CapSense_CSHL.c **** *******************************************************************************/
 244:Generated_Source\PSoC5/CapSense_CSHL.c **** void CapSense_InitializeSensorBaseline(uint8 sensor)
 245:Generated_Source\PSoC5/CapSense_CSHL.c ****                           
 246:Generated_Source\PSoC5/CapSense_CSHL.c **** {
  89              		.loc 1 246 0
  90              		.cfi_startproc
  91              		@ args = 0, pretend = 0, frame = 0
  92              		@ frame_needed = 0, uses_anonymous_args = 0
  93              	.LVL3:
  94 0000 10B5     		push	{r4, lr}
  95              		.cfi_def_cfa_offset 8
  96              		.cfi_offset 4, -8
ARM GAS  C:\Users\JEFFSN~1\AppData\Local\Temp\ccG3vFpC.s 			page 7


  97              		.cfi_offset 14, -4
  98 0002 0446     		mov	r4, r0
 247:Generated_Source\PSoC5/CapSense_CSHL.c ****     /* Scan sensor */
 248:Generated_Source\PSoC5/CapSense_CSHL.c ****     CapSense_ScanSensor(sensor);
  99              		.loc 1 248 0
 100 0004 FFF7FEFF 		bl	CapSense_ScanSensor
 101              	.LVL4:
 102              	.L6:
 249:Generated_Source\PSoC5/CapSense_CSHL.c ****     while(CapSense_IsBusy() != 0u)
 103              		.loc 1 249 0 discriminator 1
 104 0008 FFF7FEFF 		bl	CapSense_IsBusy
 105              	.LVL5:
 106 000c 0028     		cmp	r0, #0
 107 000e FBD1     		bne	.L6
 250:Generated_Source\PSoC5/CapSense_CSHL.c ****     {
 251:Generated_Source\PSoC5/CapSense_CSHL.c ****         /* Wait while busy */
 252:Generated_Source\PSoC5/CapSense_CSHL.c ****     }
 253:Generated_Source\PSoC5/CapSense_CSHL.c ****     
 254:Generated_Source\PSoC5/CapSense_CSHL.c ****     #if (CapSense_DESIGN_TYPE == CapSense_ONE_CHANNEL_DESIGN)
 255:Generated_Source\PSoC5/CapSense_CSHL.c ****         /* Initialize Baseline, Signal and debounce counters */       
 256:Generated_Source\PSoC5/CapSense_CSHL.c ****         CapSense_BaseInit(sensor);
 108              		.loc 1 256 0
 109 0010 2046     		mov	r0, r4
 110 0012 FFF7FEFF 		bl	CapSense_BaseInit
 111              	.LVL6:
 112 0016 10BD     		pop	{r4, pc}
 113              		.cfi_endproc
 114              	.LFE1:
 115              		.size	CapSense_InitializeSensorBaseline, .-CapSense_InitializeSensorBaseline
 116              		.section	.text.CapSense_InitializeAllBaselines,"ax",%progbits
 117              		.align	2
 118              		.global	CapSense_InitializeAllBaselines
 119              		.thumb
 120              		.thumb_func
 121              		.type	CapSense_InitializeAllBaselines, %function
 122              	CapSense_InitializeAllBaselines:
 123              	.LFB2:
 257:Generated_Source\PSoC5/CapSense_CSHL.c ****         
 258:Generated_Source\PSoC5/CapSense_CSHL.c ****     #else
 259:Generated_Source\PSoC5/CapSense_CSHL.c ****     
 260:Generated_Source\PSoC5/CapSense_CSHL.c ****         if(sensor < CapSense_TOTAL_SENSOR_COUNT__CH0)
 261:Generated_Source\PSoC5/CapSense_CSHL.c ****         {
 262:Generated_Source\PSoC5/CapSense_CSHL.c ****             /* Initialize Baseline, Signal and debounce counters */ 
 263:Generated_Source\PSoC5/CapSense_CSHL.c ****             CapSense_BaseInit(sensor);
 264:Generated_Source\PSoC5/CapSense_CSHL.c ****         }
 265:Generated_Source\PSoC5/CapSense_CSHL.c ****         
 266:Generated_Source\PSoC5/CapSense_CSHL.c ****         if(sensor < CapSense_TOTAL_SENSOR_COUNT__CH1)
 267:Generated_Source\PSoC5/CapSense_CSHL.c ****         {
 268:Generated_Source\PSoC5/CapSense_CSHL.c ****             /* Initialize Baseline, Signal and debounce counters */
 269:Generated_Source\PSoC5/CapSense_CSHL.c ****             CapSense_BaseInit(sensor + CapSense_TOTAL_SENSOR_COUNT__CH0);
 270:Generated_Source\PSoC5/CapSense_CSHL.c ****         }
 271:Generated_Source\PSoC5/CapSense_CSHL.c ****     
 272:Generated_Source\PSoC5/CapSense_CSHL.c ****     #endif  /* (CapSense_DESIGN_TYPE == CapSense_ONE_CHANNEL_DESIGN) */
 273:Generated_Source\PSoC5/CapSense_CSHL.c **** }
 274:Generated_Source\PSoC5/CapSense_CSHL.c **** 
 275:Generated_Source\PSoC5/CapSense_CSHL.c **** 
 276:Generated_Source\PSoC5/CapSense_CSHL.c **** /*******************************************************************************
ARM GAS  C:\Users\JEFFSN~1\AppData\Local\Temp\ccG3vFpC.s 			page 8


 277:Generated_Source\PSoC5/CapSense_CSHL.c **** * Function Name: CapSense_InitializeAllBaselines
 278:Generated_Source\PSoC5/CapSense_CSHL.c **** ********************************************************************************
 279:Generated_Source\PSoC5/CapSense_CSHL.c **** *
 280:Generated_Source\PSoC5/CapSense_CSHL.c **** * Summary:
 281:Generated_Source\PSoC5/CapSense_CSHL.c **** *  Uses the CapSense_InitializeSensorBaseline function to loads the 
 282:Generated_Source\PSoC5/CapSense_CSHL.c **** *  CapSense_sensorBaseline[] array with an initial values by scanning 
 283:Generated_Source\PSoC5/CapSense_CSHL.c **** *  all sensors. The raw count values are copied into the baseline array for 
 284:Generated_Source\PSoC5/CapSense_CSHL.c **** *  all sensors. The raw data filters are initialized if enabled.
 285:Generated_Source\PSoC5/CapSense_CSHL.c **** *
 286:Generated_Source\PSoC5/CapSense_CSHL.c **** * Parameters:
 287:Generated_Source\PSoC5/CapSense_CSHL.c **** *  None
 288:Generated_Source\PSoC5/CapSense_CSHL.c **** *
 289:Generated_Source\PSoC5/CapSense_CSHL.c **** * Return:
 290:Generated_Source\PSoC5/CapSense_CSHL.c **** *  None
 291:Generated_Source\PSoC5/CapSense_CSHL.c **** *
 292:Generated_Source\PSoC5/CapSense_CSHL.c **** * Reentrant:
 293:Generated_Source\PSoC5/CapSense_CSHL.c **** *  No
 294:Generated_Source\PSoC5/CapSense_CSHL.c **** *
 295:Generated_Source\PSoC5/CapSense_CSHL.c **** *******************************************************************************/
 296:Generated_Source\PSoC5/CapSense_CSHL.c **** void CapSense_InitializeAllBaselines(void)
 297:Generated_Source\PSoC5/CapSense_CSHL.c ****                           
 298:Generated_Source\PSoC5/CapSense_CSHL.c **** {
 124              		.loc 1 298 0
 125              		.cfi_startproc
 126              		@ args = 0, pretend = 0, frame = 0
 127              		@ frame_needed = 0, uses_anonymous_args = 0
 128 0000 10B5     		push	{r4, lr}
 129              		.cfi_def_cfa_offset 8
 130              		.cfi_offset 4, -8
 131              		.cfi_offset 14, -4
 132              	.LVL7:
 299:Generated_Source\PSoC5/CapSense_CSHL.c ****     uint8 i;
 300:Generated_Source\PSoC5/CapSense_CSHL.c ****     
 301:Generated_Source\PSoC5/CapSense_CSHL.c ****     /* The baseline initialize by sensor of sensor pair */
 302:Generated_Source\PSoC5/CapSense_CSHL.c ****     for(i = 0u; i < CapSense_TOTAL_SCANSLOT_COUNT; i++)
 133              		.loc 1 302 0
 134 0002 0024     		movs	r4, #0
 135 0004 04E0     		b	.L9
 136              	.LVL8:
 137              	.L10:
 303:Generated_Source\PSoC5/CapSense_CSHL.c ****     {
 304:Generated_Source\PSoC5/CapSense_CSHL.c ****         CapSense_InitializeSensorBaseline(i);
 138              		.loc 1 304 0 discriminator 3
 139 0006 2046     		mov	r0, r4
 140 0008 FFF7FEFF 		bl	CapSense_InitializeSensorBaseline
 141              	.LVL9:
 302:Generated_Source\PSoC5/CapSense_CSHL.c ****     {
 142              		.loc 1 302 0 discriminator 3
 143 000c 0134     		adds	r4, r4, #1
 144              	.LVL10:
 145 000e E4B2     		uxtb	r4, r4
 146              	.LVL11:
 147              	.L9:
 302:Generated_Source\PSoC5/CapSense_CSHL.c ****     {
 148              		.loc 1 302 0 is_stmt 0 discriminator 1
 149 0010 192C     		cmp	r4, #25
 150 0012 F8D9     		bls	.L10
ARM GAS  C:\Users\JEFFSN~1\AppData\Local\Temp\ccG3vFpC.s 			page 9


 305:Generated_Source\PSoC5/CapSense_CSHL.c ****     }
 306:Generated_Source\PSoC5/CapSense_CSHL.c **** }
 151              		.loc 1 306 0 is_stmt 1
 152 0014 10BD     		pop	{r4, pc}
 153              		.cfi_endproc
 154              	.LFE2:
 155              		.size	CapSense_InitializeAllBaselines, .-CapSense_InitializeAllBaselines
 156 0016 00BF     		.section	.text.CapSense_InitializeEnabledBaselines,"ax",%progbits
 157              		.align	2
 158              		.global	CapSense_InitializeEnabledBaselines
 159              		.thumb
 160              		.thumb_func
 161              		.type	CapSense_InitializeEnabledBaselines, %function
 162              	CapSense_InitializeEnabledBaselines:
 163              	.LFB3:
 307:Generated_Source\PSoC5/CapSense_CSHL.c **** 
 308:Generated_Source\PSoC5/CapSense_CSHL.c **** 
 309:Generated_Source\PSoC5/CapSense_CSHL.c **** /*******************************************************************************
 310:Generated_Source\PSoC5/CapSense_CSHL.c **** * Function Name: CapSense_InitializeEnabledBaselines
 311:Generated_Source\PSoC5/CapSense_CSHL.c **** ********************************************************************************
 312:Generated_Source\PSoC5/CapSense_CSHL.c **** *
 313:Generated_Source\PSoC5/CapSense_CSHL.c **** * Summary:
 314:Generated_Source\PSoC5/CapSense_CSHL.c **** *  Scans all enabled widgets and the raw count values are copied into the 
 315:Generated_Source\PSoC5/CapSense_CSHL.c **** *  baseline array for all sensors enabled in scanning process. Baselines 
 316:Generated_Source\PSoC5/CapSense_CSHL.c **** *  initialize with zero values for sensors disabled from scanning process. 
 317:Generated_Source\PSoC5/CapSense_CSHL.c **** *  The raw data filters are initialized if enabled.
 318:Generated_Source\PSoC5/CapSense_CSHL.c **** *
 319:Generated_Source\PSoC5/CapSense_CSHL.c **** * Parameters:
 320:Generated_Source\PSoC5/CapSense_CSHL.c **** *  None
 321:Generated_Source\PSoC5/CapSense_CSHL.c **** *
 322:Generated_Source\PSoC5/CapSense_CSHL.c **** * Return:
 323:Generated_Source\PSoC5/CapSense_CSHL.c **** *  None
 324:Generated_Source\PSoC5/CapSense_CSHL.c **** *
 325:Generated_Source\PSoC5/CapSense_CSHL.c **** * Reentrant:
 326:Generated_Source\PSoC5/CapSense_CSHL.c **** *  No
 327:Generated_Source\PSoC5/CapSense_CSHL.c **** *
 328:Generated_Source\PSoC5/CapSense_CSHL.c **** *******************************************************************************/
 329:Generated_Source\PSoC5/CapSense_CSHL.c **** void CapSense_InitializeEnabledBaselines(void)
 330:Generated_Source\PSoC5/CapSense_CSHL.c ****                              
 331:Generated_Source\PSoC5/CapSense_CSHL.c **** {
 164              		.loc 1 331 0
 165              		.cfi_startproc
 166              		@ args = 0, pretend = 0, frame = 0
 167              		@ frame_needed = 0, uses_anonymous_args = 0
 168 0000 10B5     		push	{r4, lr}
 169              		.cfi_def_cfa_offset 8
 170              		.cfi_offset 4, -8
 171              		.cfi_offset 14, -4
 332:Generated_Source\PSoC5/CapSense_CSHL.c ****     uint8 i;
 333:Generated_Source\PSoC5/CapSense_CSHL.c ****     uint8 pos;
 334:Generated_Source\PSoC5/CapSense_CSHL.c ****     uint8 enMask;
 335:Generated_Source\PSoC5/CapSense_CSHL.c ****     
 336:Generated_Source\PSoC5/CapSense_CSHL.c ****     CapSense_ScanEnabledWidgets();
 172              		.loc 1 336 0
 173 0002 FFF7FEFF 		bl	CapSense_ScanEnabledWidgets
 174              	.LVL12:
 175              	.L13:
ARM GAS  C:\Users\JEFFSN~1\AppData\Local\Temp\ccG3vFpC.s 			page 10


 337:Generated_Source\PSoC5/CapSense_CSHL.c ****     while(CapSense_IsBusy() != 0u)
 176              		.loc 1 337 0 discriminator 1
 177 0006 FFF7FEFF 		bl	CapSense_IsBusy
 178              	.LVL13:
 179 000a 0028     		cmp	r0, #0
 180 000c FBD1     		bne	.L13
 181 000e 0024     		movs	r4, #0
 182 0010 11E0     		b	.L14
 183              	.LVL14:
 184              	.L16:
 338:Generated_Source\PSoC5/CapSense_CSHL.c ****     {
 339:Generated_Source\PSoC5/CapSense_CSHL.c ****         /* Wait while busy */
 340:Generated_Source\PSoC5/CapSense_CSHL.c ****     }
 341:Generated_Source\PSoC5/CapSense_CSHL.c ****     
 342:Generated_Source\PSoC5/CapSense_CSHL.c ****     for(i = 0u; i < CapSense_TOTAL_SENSOR_COUNT; i++)
 343:Generated_Source\PSoC5/CapSense_CSHL.c ****     {
 344:Generated_Source\PSoC5/CapSense_CSHL.c ****         pos = (i >> 3u);
 185              		.loc 1 344 0
 186 0012 E208     		lsrs	r2, r4, #3
 345:Generated_Source\PSoC5/CapSense_CSHL.c ****         enMask = 0x01u << (i & 0x07u);
 187              		.loc 1 345 0
 188 0014 04F00701 		and	r1, r4, #7
 189 0018 0123     		movs	r3, #1
 190 001a 8B40     		lsls	r3, r3, r1
 191              	.LVL15:
 346:Generated_Source\PSoC5/CapSense_CSHL.c ****         
 347:Generated_Source\PSoC5/CapSense_CSHL.c ****         /* Clear raw data if sensor is disabled from scanning process */
 348:Generated_Source\PSoC5/CapSense_CSHL.c ****         if((CapSense_sensorEnableMask[pos] & enMask) == 0u)
 192              		.loc 1 348 0
 193 001c 0749     		ldr	r1, .L18
 194 001e 8A5C     		ldrb	r2, [r1, r2]	@ zero_extendqisi2
 195 0020 1342     		tst	r3, r2
 196 0022 03D1     		bne	.L15
 349:Generated_Source\PSoC5/CapSense_CSHL.c ****         {
 350:Generated_Source\PSoC5/CapSense_CSHL.c ****             CapSense_sensorRaw[i] = 0u;
 197              		.loc 1 350 0
 198 0024 0022     		movs	r2, #0
 199 0026 064B     		ldr	r3, .L18+4
 200              	.LVL16:
 201 0028 23F81420 		strh	r2, [r3, r4, lsl #1]	@ movhi
 202              	.L15:
 351:Generated_Source\PSoC5/CapSense_CSHL.c ****         }
 352:Generated_Source\PSoC5/CapSense_CSHL.c ****         
 353:Generated_Source\PSoC5/CapSense_CSHL.c ****         /* Initialize baselines */
 354:Generated_Source\PSoC5/CapSense_CSHL.c ****         CapSense_BaseInit(i);
 203              		.loc 1 354 0 discriminator 2
 204 002c 2046     		mov	r0, r4
 205 002e FFF7FEFF 		bl	CapSense_BaseInit
 206              	.LVL17:
 342:Generated_Source\PSoC5/CapSense_CSHL.c ****     {
 207              		.loc 1 342 0 discriminator 2
 208 0032 0134     		adds	r4, r4, #1
 209              	.LVL18:
 210 0034 E4B2     		uxtb	r4, r4
 211              	.LVL19:
 212              	.L14:
 342:Generated_Source\PSoC5/CapSense_CSHL.c ****     {
ARM GAS  C:\Users\JEFFSN~1\AppData\Local\Temp\ccG3vFpC.s 			page 11


 213              		.loc 1 342 0 is_stmt 0 discriminator 1
 214 0036 192C     		cmp	r4, #25
 215 0038 EBD9     		bls	.L16
 355:Generated_Source\PSoC5/CapSense_CSHL.c ****     }
 356:Generated_Source\PSoC5/CapSense_CSHL.c **** }  
 216              		.loc 1 356 0 is_stmt 1
 217 003a 10BD     		pop	{r4, pc}
 218              	.LVL20:
 219              	.L19:
 220              		.align	2
 221              	.L18:
 222 003c 00000000 		.word	CapSense_sensorEnableMask
 223 0040 00000000 		.word	CapSense_sensorRaw
 224              		.cfi_endproc
 225              	.LFE3:
 226              		.size	CapSense_InitializeEnabledBaselines, .-CapSense_InitializeEnabledBaselines
 227              		.section	.text.CapSense_CheckIsSensorActive,"ax",%progbits
 228              		.align	2
 229              		.global	CapSense_CheckIsSensorActive
 230              		.thumb
 231              		.thumb_func
 232              		.type	CapSense_CheckIsSensorActive, %function
 233              	CapSense_CheckIsSensorActive:
 234              	.LFB6:
 357:Generated_Source\PSoC5/CapSense_CSHL.c **** 
 358:Generated_Source\PSoC5/CapSense_CSHL.c **** 
 359:Generated_Source\PSoC5/CapSense_CSHL.c **** /*******************************************************************************
 360:Generated_Source\PSoC5/CapSense_CSHL.c **** * Function Name: CapSense_UpdateSensorBaseline
 361:Generated_Source\PSoC5/CapSense_CSHL.c **** ********************************************************************************
 362:Generated_Source\PSoC5/CapSense_CSHL.c **** *
 363:Generated_Source\PSoC5/CapSense_CSHL.c **** * Summary:
 364:Generated_Source\PSoC5/CapSense_CSHL.c **** *  Updates the CapSense_sensorBaseline[sensor] array element using the 
 365:Generated_Source\PSoC5/CapSense_CSHL.c **** *  LP filter with k = 256. The signal calculates the difference of count by 
 366:Generated_Source\PSoC5/CapSense_CSHL.c **** *  subtracting the previous baseline from the current raw count value and stores
 367:Generated_Source\PSoC5/CapSense_CSHL.c **** *  it in CapSense_SensorSignal[sensor]. 
 368:Generated_Source\PSoC5/CapSense_CSHL.c **** *  If auto reset option is enabled the baseline updated regards noise threshold. 
 369:Generated_Source\PSoC5/CapSense_CSHL.c **** *  If auto reset option is disabled the baseline stops updating if signal is 
 370:Generated_Source\PSoC5/CapSense_CSHL.c **** *  greater that zero and baseline loads with raw count value if signal is less 
 371:Generated_Source\PSoC5/CapSense_CSHL.c **** *  that noise threshold.
 372:Generated_Source\PSoC5/CapSense_CSHL.c **** *  Raw data filters are applied to the values if enabled before baseline 
 373:Generated_Source\PSoC5/CapSense_CSHL.c **** *  calculation.
 374:Generated_Source\PSoC5/CapSense_CSHL.c **** *
 375:Generated_Source\PSoC5/CapSense_CSHL.c **** * Parameters:
 376:Generated_Source\PSoC5/CapSense_CSHL.c **** *  sensor:  Sensor number.
 377:Generated_Source\PSoC5/CapSense_CSHL.c **** *
 378:Generated_Source\PSoC5/CapSense_CSHL.c **** * Return:
 379:Generated_Source\PSoC5/CapSense_CSHL.c **** *  None
 380:Generated_Source\PSoC5/CapSense_CSHL.c **** *
 381:Generated_Source\PSoC5/CapSense_CSHL.c **** * Global Variables:
 382:Generated_Source\PSoC5/CapSense_CSHL.c **** *  CapSense_sensorBaseline[]    - used to store baseline value.
 383:Generated_Source\PSoC5/CapSense_CSHL.c **** *  CapSense_sensorBaselineLow[] - used to store fraction byte of 
 384:Generated_Source\PSoC5/CapSense_CSHL.c **** *  baseline value.
 385:Generated_Source\PSoC5/CapSense_CSHL.c **** *  CapSense_sensorSignal[]      - used to store diffence between 
 386:Generated_Source\PSoC5/CapSense_CSHL.c **** *  current value of raw data and previous value of baseline.
 387:Generated_Source\PSoC5/CapSense_CSHL.c **** *  CapSense_rawFilterData1[]    - used to store previous sample of 
 388:Generated_Source\PSoC5/CapSense_CSHL.c **** *  any enabled raw data filter.
 389:Generated_Source\PSoC5/CapSense_CSHL.c **** *  CapSense_rawFilterData2[]    - used to store before previous sample
ARM GAS  C:\Users\JEFFSN~1\AppData\Local\Temp\ccG3vFpC.s 			page 12


 390:Generated_Source\PSoC5/CapSense_CSHL.c **** *  of enabled raw data filter. Only required for median or average filters.
 391:Generated_Source\PSoC5/CapSense_CSHL.c **** *
 392:Generated_Source\PSoC5/CapSense_CSHL.c **** * Reentrant:
 393:Generated_Source\PSoC5/CapSense_CSHL.c **** *  No
 394:Generated_Source\PSoC5/CapSense_CSHL.c **** *
 395:Generated_Source\PSoC5/CapSense_CSHL.c **** *******************************************************************************/
 396:Generated_Source\PSoC5/CapSense_CSHL.c ****  void CapSense_UpdateSensorBaseline(uint8 sensor)
 397:Generated_Source\PSoC5/CapSense_CSHL.c ****                                  
 398:Generated_Source\PSoC5/CapSense_CSHL.c **** {
 399:Generated_Source\PSoC5/CapSense_CSHL.c ****     uint32 calc;
 400:Generated_Source\PSoC5/CapSense_CSHL.c ****     uint16 tempRaw;
 401:Generated_Source\PSoC5/CapSense_CSHL.c ****     uint16 filteredRawData;
 402:Generated_Source\PSoC5/CapSense_CSHL.c ****     uint8 widget = CapSense_widgetNumber[sensor];
 403:Generated_Source\PSoC5/CapSense_CSHL.c ****     uint16 noiseThreshold = CapSense_noiseThreshold[widget];
 404:Generated_Source\PSoC5/CapSense_CSHL.c ****     
 405:Generated_Source\PSoC5/CapSense_CSHL.c ****     #if (CapSense_TOTAL_GENERICS_COUNT)
 406:Generated_Source\PSoC5/CapSense_CSHL.c ****         /* Exclude generic widget */
 407:Generated_Source\PSoC5/CapSense_CSHL.c ****         if(widget < CapSense_END_OF_WIDGETS_INDEX)
 408:Generated_Source\PSoC5/CapSense_CSHL.c ****         {
 409:Generated_Source\PSoC5/CapSense_CSHL.c ****     #endif  /* CapSense_TOTAL_GENERICS_COUNT */
 410:Generated_Source\PSoC5/CapSense_CSHL.c ****     
 411:Generated_Source\PSoC5/CapSense_CSHL.c ****     filteredRawData = CapSense_sensorRaw[sensor];
 412:Generated_Source\PSoC5/CapSense_CSHL.c ****     
 413:Generated_Source\PSoC5/CapSense_CSHL.c ****     #if (CapSense_RAW_FILTER_MASK & CapSense_MEDIAN_FILTER)
 414:Generated_Source\PSoC5/CapSense_CSHL.c ****         tempRaw = filteredRawData;
 415:Generated_Source\PSoC5/CapSense_CSHL.c ****         filteredRawData = CapSense_MedianFilter(filteredRawData, CapSense_rawFilterData1[sensor], 
 416:Generated_Source\PSoC5/CapSense_CSHL.c ****                                                         CapSense_rawFilterData2[sensor]);
 417:Generated_Source\PSoC5/CapSense_CSHL.c ****         CapSense_rawFilterData2[sensor] = CapSense_rawFilterData1[sensor];
 418:Generated_Source\PSoC5/CapSense_CSHL.c ****         CapSense_rawFilterData1[sensor] = tempRaw;
 419:Generated_Source\PSoC5/CapSense_CSHL.c ****         
 420:Generated_Source\PSoC5/CapSense_CSHL.c ****     #elif (CapSense_RAW_FILTER_MASK & CapSense_AVERAGING_FILTER)
 421:Generated_Source\PSoC5/CapSense_CSHL.c ****         tempRaw = filteredRawData;
 422:Generated_Source\PSoC5/CapSense_CSHL.c ****         filteredRawData = CapSense_AveragingFilter(filteredRawData, CapSense_rawFilterData1[sensor]
 423:Generated_Source\PSoC5/CapSense_CSHL.c ****                                                            CapSense_rawFilterData2[sensor]);
 424:Generated_Source\PSoC5/CapSense_CSHL.c ****         CapSense_rawFilterData2[sensor] = CapSense_rawFilterData1[sensor];
 425:Generated_Source\PSoC5/CapSense_CSHL.c ****         CapSense_rawFilterData1[sensor] = tempRaw;
 426:Generated_Source\PSoC5/CapSense_CSHL.c ****         
 427:Generated_Source\PSoC5/CapSense_CSHL.c ****     #elif (CapSense_RAW_FILTER_MASK & CapSense_IIR2_FILTER)
 428:Generated_Source\PSoC5/CapSense_CSHL.c ****         filteredRawData = CapSense_IIR2Filter(filteredRawData, CapSense_rawFilterData1[sensor]);
 429:Generated_Source\PSoC5/CapSense_CSHL.c ****         CapSense_rawFilterData1[sensor] = filteredRawData;
 430:Generated_Source\PSoC5/CapSense_CSHL.c ****         
 431:Generated_Source\PSoC5/CapSense_CSHL.c ****     #elif (CapSense_RAW_FILTER_MASK & CapSense_IIR4_FILTER)
 432:Generated_Source\PSoC5/CapSense_CSHL.c ****         filteredRawData = CapSense_IIR4Filter(filteredRawData, CapSense_rawFilterData1[sensor]);
 433:Generated_Source\PSoC5/CapSense_CSHL.c ****         CapSense_rawFilterData1[sensor] = filteredRawData;
 434:Generated_Source\PSoC5/CapSense_CSHL.c ****             
 435:Generated_Source\PSoC5/CapSense_CSHL.c ****     #elif (CapSense_RAW_FILTER_MASK & CapSense_JITTER_FILTER)
 436:Generated_Source\PSoC5/CapSense_CSHL.c ****         filteredRawData = CapSense_JitterFilter(filteredRawData, CapSense_rawFilterData1[sensor]);
 437:Generated_Source\PSoC5/CapSense_CSHL.c ****         CapSense_rawFilterData1[sensor] = filteredRawData;
 438:Generated_Source\PSoC5/CapSense_CSHL.c ****         
 439:Generated_Source\PSoC5/CapSense_CSHL.c ****     #elif (CapSense_RAW_FILTER_MASK & CapSense_IIR8_FILTER)
 440:Generated_Source\PSoC5/CapSense_CSHL.c ****         filteredRawData = CapSense_IIR8Filter(filteredRawData, CapSense_rawFilterData1[sensor]);
 441:Generated_Source\PSoC5/CapSense_CSHL.c ****         CapSense_rawFilterData1[sensor] = filteredRawData;
 442:Generated_Source\PSoC5/CapSense_CSHL.c ****         
 443:Generated_Source\PSoC5/CapSense_CSHL.c ****     #elif (CapSense_RAW_FILTER_MASK & CapSense_IIR16_FILTER)
 444:Generated_Source\PSoC5/CapSense_CSHL.c ****         filteredRawData = CapSense_IIR16Filter(filteredRawData, CapSense_rawFilterData1[sensor]);
 445:Generated_Source\PSoC5/CapSense_CSHL.c ****         CapSense_rawFilterData1[sensor] = filteredRawData;
 446:Generated_Source\PSoC5/CapSense_CSHL.c ****         
ARM GAS  C:\Users\JEFFSN~1\AppData\Local\Temp\ccG3vFpC.s 			page 13


 447:Generated_Source\PSoC5/CapSense_CSHL.c ****     #else
 448:Generated_Source\PSoC5/CapSense_CSHL.c ****         /* No Raw filters */
 449:Generated_Source\PSoC5/CapSense_CSHL.c ****     #endif  /* (CapSense_RAW_FILTER_MASK & CapSense_MEDIAN_FILTER) */
 450:Generated_Source\PSoC5/CapSense_CSHL.c ****     
 451:Generated_Source\PSoC5/CapSense_CSHL.c ****     #if (CapSense_TUNING_METHOD == CapSense_AUTO_TUNING)
 452:Generated_Source\PSoC5/CapSense_CSHL.c ****         CapSense_CalculateThresholds(sensor);
 453:Generated_Source\PSoC5/CapSense_CSHL.c ****     #endif /* (CapSense_TUNING_METHOD == CapSense_AUTO_TUNING) */
 454:Generated_Source\PSoC5/CapSense_CSHL.c **** 
 455:Generated_Source\PSoC5/CapSense_CSHL.c **** 
 456:Generated_Source\PSoC5/CapSense_CSHL.c ****     /* Baseline calculation */
 457:Generated_Source\PSoC5/CapSense_CSHL.c ****     /* Calculate difference RawData[cur] - Baseline[prev] */
 458:Generated_Source\PSoC5/CapSense_CSHL.c ****     if(filteredRawData >= CapSense_sensorBaseline[sensor])
 459:Generated_Source\PSoC5/CapSense_CSHL.c ****     {
 460:Generated_Source\PSoC5/CapSense_CSHL.c ****         tempRaw = filteredRawData - CapSense_sensorBaseline[sensor];
 461:Generated_Source\PSoC5/CapSense_CSHL.c ****         widget = 1u;    /* Positive difference - Calculate the Signal */
 462:Generated_Source\PSoC5/CapSense_CSHL.c ****     }
 463:Generated_Source\PSoC5/CapSense_CSHL.c ****     else
 464:Generated_Source\PSoC5/CapSense_CSHL.c ****     {
 465:Generated_Source\PSoC5/CapSense_CSHL.c ****         tempRaw = CapSense_sensorBaseline[sensor] - filteredRawData;
 466:Generated_Source\PSoC5/CapSense_CSHL.c ****         widget = 0u;    /* Negative difference - Do NOT calculate the Signal */
 467:Generated_Source\PSoC5/CapSense_CSHL.c ****     }
 468:Generated_Source\PSoC5/CapSense_CSHL.c **** 
 469:Generated_Source\PSoC5/CapSense_CSHL.c ****     if((widget == 0u) && (tempRaw > (uint16) CapSense_NEGATIVE_NOISE_THRESHOLD))
 470:Generated_Source\PSoC5/CapSense_CSHL.c ****     {
 471:Generated_Source\PSoC5/CapSense_CSHL.c ****         if(CapSense_lowBaselineResetCnt[sensor] >= CapSense_LOW_BASELINE_RESET)
 472:Generated_Source\PSoC5/CapSense_CSHL.c ****         {
 473:Generated_Source\PSoC5/CapSense_CSHL.c ****             CapSense_BaseInit(sensor);
 474:Generated_Source\PSoC5/CapSense_CSHL.c ****             CapSense_lowBaselineResetCnt[sensor] = 0u;
 475:Generated_Source\PSoC5/CapSense_CSHL.c ****         }
 476:Generated_Source\PSoC5/CapSense_CSHL.c ****         else
 477:Generated_Source\PSoC5/CapSense_CSHL.c ****         {
 478:Generated_Source\PSoC5/CapSense_CSHL.c ****             CapSense_lowBaselineResetCnt[sensor]++;
 479:Generated_Source\PSoC5/CapSense_CSHL.c ****         }
 480:Generated_Source\PSoC5/CapSense_CSHL.c ****     }
 481:Generated_Source\PSoC5/CapSense_CSHL.c ****     else
 482:Generated_Source\PSoC5/CapSense_CSHL.c ****     {
 483:Generated_Source\PSoC5/CapSense_CSHL.c ****         #if (CapSense_AUTO_RESET == CapSense_AUTO_RESET_DISABLE)
 484:Generated_Source\PSoC5/CapSense_CSHL.c ****             /* Update Baseline if lower that noiseThreshold */
 485:Generated_Source\PSoC5/CapSense_CSHL.c ****             if ( (tempRaw <= (uint16) noiseThreshold) || 
 486:Generated_Source\PSoC5/CapSense_CSHL.c ****                  ((tempRaw < (uint16) CapSense_NEGATIVE_NOISE_THRESHOLD)
 487:Generated_Source\PSoC5/CapSense_CSHL.c ****                    && (widget == 0u)))
 488:Generated_Source\PSoC5/CapSense_CSHL.c ****             {
 489:Generated_Source\PSoC5/CapSense_CSHL.c ****         #endif /* (CapSense_AUTO_RESET == CapSense_AUTO_RESET_DISABLE) */
 490:Generated_Source\PSoC5/CapSense_CSHL.c ****                 /* Make full Baseline 23 bits */
 491:Generated_Source\PSoC5/CapSense_CSHL.c ****                 calc = (uint32) CapSense_sensorBaseline[sensor] << 8u;
 492:Generated_Source\PSoC5/CapSense_CSHL.c ****                 calc |= (uint32) CapSense_sensorBaselineLow[sensor];
 493:Generated_Source\PSoC5/CapSense_CSHL.c **** 
 494:Generated_Source\PSoC5/CapSense_CSHL.c ****                 /* Add Raw Data to Baseline */
 495:Generated_Source\PSoC5/CapSense_CSHL.c ****                 calc += filteredRawData;
 496:Generated_Source\PSoC5/CapSense_CSHL.c **** 
 497:Generated_Source\PSoC5/CapSense_CSHL.c ****                 /* Sub the high Baseline */
 498:Generated_Source\PSoC5/CapSense_CSHL.c ****                 calc -= CapSense_sensorBaseline[sensor];
 499:Generated_Source\PSoC5/CapSense_CSHL.c **** 
 500:Generated_Source\PSoC5/CapSense_CSHL.c ****                 /* Put Baseline and BaselineLow */
 501:Generated_Source\PSoC5/CapSense_CSHL.c ****                 CapSense_sensorBaseline[sensor] = ((uint16) (calc >> 8u));
 502:Generated_Source\PSoC5/CapSense_CSHL.c ****                 CapSense_sensorBaselineLow[sensor] = ((uint8) calc);
 503:Generated_Source\PSoC5/CapSense_CSHL.c **** 
ARM GAS  C:\Users\JEFFSN~1\AppData\Local\Temp\ccG3vFpC.s 			page 14


 504:Generated_Source\PSoC5/CapSense_CSHL.c ****                 CapSense_lowBaselineResetCnt[sensor] = 0u;
 505:Generated_Source\PSoC5/CapSense_CSHL.c ****         #if (CapSense_AUTO_RESET == CapSense_AUTO_RESET_DISABLE)
 506:Generated_Source\PSoC5/CapSense_CSHL.c ****             }
 507:Generated_Source\PSoC5/CapSense_CSHL.c ****         #endif /* (CapSense_AUTO_RESET == CapSense_AUTO_RESET_DISABLE) */
 508:Generated_Source\PSoC5/CapSense_CSHL.c ****     }
 509:Generated_Source\PSoC5/CapSense_CSHL.c **** 
 510:Generated_Source\PSoC5/CapSense_CSHL.c ****     /* Calculate Signal if possitive difference > noiseThreshold */
 511:Generated_Source\PSoC5/CapSense_CSHL.c ****     if((tempRaw > (uint16) noiseThreshold) && (widget != 0u))
 512:Generated_Source\PSoC5/CapSense_CSHL.c ****     {
 513:Generated_Source\PSoC5/CapSense_CSHL.c ****         #if (CapSense_SIGNAL_SIZE == CapSense_SIGNAL_SIZE_UINT8)
 514:Generated_Source\PSoC5/CapSense_CSHL.c ****             /* Over flow defence for uint8 */
 515:Generated_Source\PSoC5/CapSense_CSHL.c ****             if (tempRaw > 0xFFu)
 516:Generated_Source\PSoC5/CapSense_CSHL.c ****             {
 517:Generated_Source\PSoC5/CapSense_CSHL.c ****                 CapSense_sensorSignal[sensor] = 0xFFu;
 518:Generated_Source\PSoC5/CapSense_CSHL.c ****             }    
 519:Generated_Source\PSoC5/CapSense_CSHL.c ****             else 
 520:Generated_Source\PSoC5/CapSense_CSHL.c ****             {
 521:Generated_Source\PSoC5/CapSense_CSHL.c ****                 CapSense_sensorSignal[sensor] = ((uint8) tempRaw);
 522:Generated_Source\PSoC5/CapSense_CSHL.c ****             }
 523:Generated_Source\PSoC5/CapSense_CSHL.c ****         #else
 524:Generated_Source\PSoC5/CapSense_CSHL.c ****             CapSense_sensorSignal[sensor] = ((uint16) tempRaw);
 525:Generated_Source\PSoC5/CapSense_CSHL.c ****         #endif  /* (CapSense_SIGNAL_SIZE == CapSense_SIGNAL_SIZE_UINT8) */
 526:Generated_Source\PSoC5/CapSense_CSHL.c ****     }
 527:Generated_Source\PSoC5/CapSense_CSHL.c ****     else
 528:Generated_Source\PSoC5/CapSense_CSHL.c ****     {
 529:Generated_Source\PSoC5/CapSense_CSHL.c ****         /* Signal is zero */
 530:Generated_Source\PSoC5/CapSense_CSHL.c ****         CapSense_sensorSignal[sensor] = 0u;
 531:Generated_Source\PSoC5/CapSense_CSHL.c ****     }
 532:Generated_Source\PSoC5/CapSense_CSHL.c **** 
 533:Generated_Source\PSoC5/CapSense_CSHL.c ****     #if (CapSense_TOTAL_GENERICS_COUNT)
 534:Generated_Source\PSoC5/CapSense_CSHL.c ****         /* Exclude generic widget */
 535:Generated_Source\PSoC5/CapSense_CSHL.c ****         }
 536:Generated_Source\PSoC5/CapSense_CSHL.c ****     #endif  /* CapSense_TOTAL_GENERICS_COUNT */
 537:Generated_Source\PSoC5/CapSense_CSHL.c **** }
 538:Generated_Source\PSoC5/CapSense_CSHL.c **** 
 539:Generated_Source\PSoC5/CapSense_CSHL.c **** 
 540:Generated_Source\PSoC5/CapSense_CSHL.c **** /*******************************************************************************
 541:Generated_Source\PSoC5/CapSense_CSHL.c **** * Function Name: CapSense_UpdateEnabledBaselines
 542:Generated_Source\PSoC5/CapSense_CSHL.c **** ********************************************************************************
 543:Generated_Source\PSoC5/CapSense_CSHL.c **** *
 544:Generated_Source\PSoC5/CapSense_CSHL.c **** * Summary:
 545:Generated_Source\PSoC5/CapSense_CSHL.c **** *  Checks CapSense_sensorEnableMask[] array and calls the 
 546:Generated_Source\PSoC5/CapSense_CSHL.c **** *  CapSense_UpdateSensorBaseline function to update the baselines 
 547:Generated_Source\PSoC5/CapSense_CSHL.c **** *  for enabled sensors.
 548:Generated_Source\PSoC5/CapSense_CSHL.c **** *
 549:Generated_Source\PSoC5/CapSense_CSHL.c **** * Parameters:
 550:Generated_Source\PSoC5/CapSense_CSHL.c **** *  None
 551:Generated_Source\PSoC5/CapSense_CSHL.c **** *
 552:Generated_Source\PSoC5/CapSense_CSHL.c **** * Return:
 553:Generated_Source\PSoC5/CapSense_CSHL.c **** *  None
 554:Generated_Source\PSoC5/CapSense_CSHL.c **** *
 555:Generated_Source\PSoC5/CapSense_CSHL.c **** * Global Variables:
 556:Generated_Source\PSoC5/CapSense_CSHL.c **** *  CapSense_sensorEnableMask[] - used to store the sensor scanning 
 557:Generated_Source\PSoC5/CapSense_CSHL.c **** *  state.
 558:Generated_Source\PSoC5/CapSense_CSHL.c **** *  CapSense_sensorEnableMask[0] contains the masked bits for sensors 
 559:Generated_Source\PSoC5/CapSense_CSHL.c **** *   0 through 7 (sensor 0 is bit 0, sensor 1 is bit 1).
 560:Generated_Source\PSoC5/CapSense_CSHL.c **** *  CapSense_sensorEnableMask[1] contains the masked bits for 
ARM GAS  C:\Users\JEFFSN~1\AppData\Local\Temp\ccG3vFpC.s 			page 15


 561:Generated_Source\PSoC5/CapSense_CSHL.c **** *  sensors 8 through 15 (if needed), and so on.
 562:Generated_Source\PSoC5/CapSense_CSHL.c **** *  0 - sensor doesn't scan by CapSense_ScanEnabledWidgets().
 563:Generated_Source\PSoC5/CapSense_CSHL.c **** *  1 - sensor scans by CapSense_ScanEnabledWidgets().
 564:Generated_Source\PSoC5/CapSense_CSHL.c **** *
 565:Generated_Source\PSoC5/CapSense_CSHL.c **** * Reentrant:
 566:Generated_Source\PSoC5/CapSense_CSHL.c **** *  No
 567:Generated_Source\PSoC5/CapSense_CSHL.c **** *
 568:Generated_Source\PSoC5/CapSense_CSHL.c **** *******************************************************************************/
 569:Generated_Source\PSoC5/CapSense_CSHL.c ****  void CapSense_UpdateEnabledBaselines(void)
 570:Generated_Source\PSoC5/CapSense_CSHL.c ****                                  
 571:Generated_Source\PSoC5/CapSense_CSHL.c **** {
 572:Generated_Source\PSoC5/CapSense_CSHL.c ****     uint8 i;
 573:Generated_Source\PSoC5/CapSense_CSHL.c ****     uint8 pos;
 574:Generated_Source\PSoC5/CapSense_CSHL.c ****     uint8 enMask;
 575:Generated_Source\PSoC5/CapSense_CSHL.c ****     
 576:Generated_Source\PSoC5/CapSense_CSHL.c ****     for(i = 0u; i < CapSense_TOTAL_SENSOR_COUNT; i++)
 577:Generated_Source\PSoC5/CapSense_CSHL.c ****     {
 578:Generated_Source\PSoC5/CapSense_CSHL.c ****         pos = (i >> 3u);
 579:Generated_Source\PSoC5/CapSense_CSHL.c ****         enMask = (uint8)(0x01u << (i & 0x07u));
 580:Generated_Source\PSoC5/CapSense_CSHL.c ****         if((CapSense_sensorEnableMask[pos] & enMask) != 0u)
 581:Generated_Source\PSoC5/CapSense_CSHL.c ****         {
 582:Generated_Source\PSoC5/CapSense_CSHL.c ****             CapSense_UpdateSensorBaseline(i);
 583:Generated_Source\PSoC5/CapSense_CSHL.c ****         }
 584:Generated_Source\PSoC5/CapSense_CSHL.c ****     }
 585:Generated_Source\PSoC5/CapSense_CSHL.c **** }
 586:Generated_Source\PSoC5/CapSense_CSHL.c **** 
 587:Generated_Source\PSoC5/CapSense_CSHL.c **** 
 588:Generated_Source\PSoC5/CapSense_CSHL.c **** /*******************************************************************************
 589:Generated_Source\PSoC5/CapSense_CSHL.c **** * Function Name: CapSense_CheckIsSensorActive
 590:Generated_Source\PSoC5/CapSense_CSHL.c **** ********************************************************************************
 591:Generated_Source\PSoC5/CapSense_CSHL.c **** *
 592:Generated_Source\PSoC5/CapSense_CSHL.c **** * Summary:
 593:Generated_Source\PSoC5/CapSense_CSHL.c **** *  Compares the CapSense_SensorSignal[sensor] array element to finger
 594:Generated_Source\PSoC5/CapSense_CSHL.c **** *  threshold of widget it belongs to. The hysteresis and debounce are taken into 
 595:Generated_Source\PSoC5/CapSense_CSHL.c **** *  account. The hysteresis is added or subtracted from the finger threshold 
 596:Generated_Source\PSoC5/CapSense_CSHL.c **** *  based on whether the sensor is currently active. 
 597:Generated_Source\PSoC5/CapSense_CSHL.c **** *  If the sensor is active, the threshold is lowered by the hysteresis amount.
 598:Generated_Source\PSoC5/CapSense_CSHL.c **** *  If the sensor is inactive, the threshold is raised by the hysteresis amount.
 599:Generated_Source\PSoC5/CapSense_CSHL.c **** *  The debounce counter added to the sensor active transition.
 600:Generated_Source\PSoC5/CapSense_CSHL.c **** *  This function updates CapSense_SensorOnMask[] array element.
 601:Generated_Source\PSoC5/CapSense_CSHL.c **** *
 602:Generated_Source\PSoC5/CapSense_CSHL.c **** * Parameters:
 603:Generated_Source\PSoC5/CapSense_CSHL.c **** *  sensor:  Sensor number.
 604:Generated_Source\PSoC5/CapSense_CSHL.c **** *
 605:Generated_Source\PSoC5/CapSense_CSHL.c **** * Return:
 606:Generated_Source\PSoC5/CapSense_CSHL.c **** *  Returns sensor state 1 if active, 0 if not active.
 607:Generated_Source\PSoC5/CapSense_CSHL.c **** *
 608:Generated_Source\PSoC5/CapSense_CSHL.c **** * Global Variables:
 609:Generated_Source\PSoC5/CapSense_CSHL.c **** *  CapSense_sensorSignal[]      - used to store diffence between 
 610:Generated_Source\PSoC5/CapSense_CSHL.c **** *  current value of raw data and previous value of baseline.
 611:Generated_Source\PSoC5/CapSense_CSHL.c **** *  CapSense_debounceCounter[]   - used to store current debounce 
 612:Generated_Source\PSoC5/CapSense_CSHL.c **** *  counter of sensor. Widget which has this parameter are buttons, matrix 
 613:Generated_Source\PSoC5/CapSense_CSHL.c **** *  buttons, proximity, guard. All other widgets haven't debounce parameter
 614:Generated_Source\PSoC5/CapSense_CSHL.c **** *  and use the last element of this array with value 0 (it means no debounce).
 615:Generated_Source\PSoC5/CapSense_CSHL.c **** *  CapSense_sensorOnMask[] - used to store sensors on/off state.
 616:Generated_Source\PSoC5/CapSense_CSHL.c **** *  CapSense_sensorOnMask[0] contains the masked bits for sensors 
 617:Generated_Source\PSoC5/CapSense_CSHL.c **** *   0 through 7 (sensor 0 is bit 0, sensor 1 is bit 1).
ARM GAS  C:\Users\JEFFSN~1\AppData\Local\Temp\ccG3vFpC.s 			page 16


 618:Generated_Source\PSoC5/CapSense_CSHL.c **** *  CapSense_sensorEnableMask[1] contains the masked bits for 
 619:Generated_Source\PSoC5/CapSense_CSHL.c **** *  sensors 8 through 15 (if needed), and so on.
 620:Generated_Source\PSoC5/CapSense_CSHL.c **** *  0 - sensor is inactive.
 621:Generated_Source\PSoC5/CapSense_CSHL.c **** *  1 - sensor is active.
 622:Generated_Source\PSoC5/CapSense_CSHL.c **** *
 623:Generated_Source\PSoC5/CapSense_CSHL.c **** * Reentrant:
 624:Generated_Source\PSoC5/CapSense_CSHL.c **** *  No
 625:Generated_Source\PSoC5/CapSense_CSHL.c **** *
 626:Generated_Source\PSoC5/CapSense_CSHL.c **** *******************************************************************************/
 627:Generated_Source\PSoC5/CapSense_CSHL.c **** uint8 CapSense_CheckIsSensorActive(uint8 sensor)
 628:Generated_Source\PSoC5/CapSense_CSHL.c ****                                   
 629:Generated_Source\PSoC5/CapSense_CSHL.c **** {
 235              		.loc 1 629 0
 236              		.cfi_startproc
 237              		@ args = 0, pretend = 0, frame = 0
 238              		@ frame_needed = 0, uses_anonymous_args = 0
 239              	.LVL21:
 240 0000 F0B5     		push	{r4, r5, r6, r7, lr}
 241              		.cfi_def_cfa_offset 20
 242              		.cfi_offset 4, -20
 243              		.cfi_offset 5, -16
 244              		.cfi_offset 6, -12
 245              		.cfi_offset 7, -8
 246              		.cfi_offset 14, -4
 630:Generated_Source\PSoC5/CapSense_CSHL.c ****     uint8 debounceIndex;
 631:Generated_Source\PSoC5/CapSense_CSHL.c ****     /* Get On/Off mask */
 632:Generated_Source\PSoC5/CapSense_CSHL.c ****     uint8 pos = (sensor >> 3u);
 247              		.loc 1 632 0
 248 0002 C408     		lsrs	r4, r0, #3
 249              	.LVL22:
 633:Generated_Source\PSoC5/CapSense_CSHL.c ****     uint8 onMask = 0x01u << (sensor & 0x07u);
 250              		.loc 1 633 0
 251 0004 00F00702 		and	r2, r0, #7
 252 0008 0123     		movs	r3, #1
 253 000a 9340     		lsls	r3, r3, r2
 254 000c DBB2     		uxtb	r3, r3
 255              	.LVL23:
 634:Generated_Source\PSoC5/CapSense_CSHL.c ****     /* Prepare to find debounce counter index */
 635:Generated_Source\PSoC5/CapSense_CSHL.c ****     uint8 widget = CapSense_widgetNumber[sensor];
 256              		.loc 1 635 0
 257 000e 1A4A     		ldr	r2, .L27
 258 0010 125C     		ldrb	r2, [r2, r0]	@ zero_extendqisi2
 636:Generated_Source\PSoC5/CapSense_CSHL.c ****     uint16 fingerThreshold = CapSense_fingerThreshold[widget];
 259              		.loc 1 636 0
 260 0012 1A4D     		ldr	r5, .L27+4
 261 0014 05EB4206 		add	r6, r5, r2, lsl #1
 262 0018 B78B     		ldrh	r7, [r6, #28]
 263              	.LVL24:
 637:Generated_Source\PSoC5/CapSense_CSHL.c ****     uint16 hysteresis = CapSense_hysteresis[widget];
 264              		.loc 1 637 0
 265 001a B6F85010 		ldrh	r1, [r6, #80]
 266              	.LVL25:
 638:Generated_Source\PSoC5/CapSense_CSHL.c ****     uint8 debounce = CapSense_debounce[widget];
 267              		.loc 1 638 0
 268 001e AE5C     		ldrb	r6, [r5, r2]	@ zero_extendqisi2
 269              	.LVL26:
 639:Generated_Source\PSoC5/CapSense_CSHL.c ****     
ARM GAS  C:\Users\JEFFSN~1\AppData\Local\Temp\ccG3vFpC.s 			page 17


 640:Generated_Source\PSoC5/CapSense_CSHL.c ****     debounceIndex = widget;
 641:Generated_Source\PSoC5/CapSense_CSHL.c **** 
 642:Generated_Source\PSoC5/CapSense_CSHL.c ****     
 643:Generated_Source\PSoC5/CapSense_CSHL.c ****     /* Was on */
 644:Generated_Source\PSoC5/CapSense_CSHL.c ****     if (0u != (CapSense_sensorOnMask[pos] & onMask))
 270              		.loc 1 644 0
 271 0020 174D     		ldr	r5, .L27+8
 272 0022 2D5D     		ldrb	r5, [r5, r4]	@ zero_extendqisi2
 273 0024 2B42     		tst	r3, r5
 274 0026 0DD0     		beq	.L21
 645:Generated_Source\PSoC5/CapSense_CSHL.c ****     {
 646:Generated_Source\PSoC5/CapSense_CSHL.c ****         /* Hysteresis minus */
 647:Generated_Source\PSoC5/CapSense_CSHL.c ****         if (CapSense_sensorSignal[sensor] < (fingerThreshold - hysteresis))
 275              		.loc 1 647 0
 276 0028 DFF85CE0 		ldr	lr, .L27+16
 277 002c 3EF81000 		ldrh	r0, [lr, r0, lsl #1]
 278              	.LVL27:
 279 0030 791A     		subs	r1, r7, r1
 280              	.LVL28:
 281 0032 8842     		cmp	r0, r1
 282 0034 1ADA     		bge	.L22
 648:Generated_Source\PSoC5/CapSense_CSHL.c ****         {
 649:Generated_Source\PSoC5/CapSense_CSHL.c ****             CapSense_sensorOnMask[pos] &= (uint8)~onMask;
 283              		.loc 1 649 0
 284 0036 25EA0305 		bic	r5, r5, r3
 285 003a 1149     		ldr	r1, .L27+8
 286 003c 0D55     		strb	r5, [r1, r4]
 650:Generated_Source\PSoC5/CapSense_CSHL.c ****             CapSense_debounceCounter[debounceIndex] = debounce; 
 287              		.loc 1 650 0
 288 003e 1149     		ldr	r1, .L27+12
 289 0040 8E54     		strb	r6, [r1, r2]
 290 0042 13E0     		b	.L22
 291              	.LVL29:
 292              	.L21:
 651:Generated_Source\PSoC5/CapSense_CSHL.c ****         }
 652:Generated_Source\PSoC5/CapSense_CSHL.c ****     }
 653:Generated_Source\PSoC5/CapSense_CSHL.c ****     else    /* Was off */
 654:Generated_Source\PSoC5/CapSense_CSHL.c ****     {
 655:Generated_Source\PSoC5/CapSense_CSHL.c ****         /* Hysteresis plus */
 656:Generated_Source\PSoC5/CapSense_CSHL.c ****         if (CapSense_sensorSignal[sensor] > (fingerThreshold + hysteresis))
 293              		.loc 1 656 0
 294 0044 DFF840E0 		ldr	lr, .L27+16
 295 0048 3EF81000 		ldrh	r0, [lr, r0, lsl #1]
 296              	.LVL30:
 297 004c 3944     		add	r1, r1, r7
 298              	.LVL31:
 299 004e 8842     		cmp	r0, r1
 300 0050 0ADD     		ble	.L23
 657:Generated_Source\PSoC5/CapSense_CSHL.c ****         {
 658:Generated_Source\PSoC5/CapSense_CSHL.c ****             /* Sensor active, decrement debounce counter */
 659:Generated_Source\PSoC5/CapSense_CSHL.c ****             if (CapSense_debounceCounter[debounceIndex] <= 1u)
 301              		.loc 1 659 0
 302 0052 0C49     		ldr	r1, .L27+12
 303 0054 895C     		ldrb	r1, [r1, r2]	@ zero_extendqisi2
 304 0056 0129     		cmp	r1, #1
 305 0058 02D8     		bhi	.L24
 660:Generated_Source\PSoC5/CapSense_CSHL.c ****             {
ARM GAS  C:\Users\JEFFSN~1\AppData\Local\Temp\ccG3vFpC.s 			page 18


 661:Generated_Source\PSoC5/CapSense_CSHL.c ****                 CapSense_sensorOnMask[pos] |= onMask; 
 306              		.loc 1 661 0
 307 005a 1D43     		orrs	r5, r5, r3
 308 005c 0848     		ldr	r0, .L27+8
 309 005e 0555     		strb	r5, [r0, r4]
 310              	.L24:
 662:Generated_Source\PSoC5/CapSense_CSHL.c ****             }
 663:Generated_Source\PSoC5/CapSense_CSHL.c ****             CapSense_debounceCounter[debounceIndex]--;
 311              		.loc 1 663 0
 312 0060 0139     		subs	r1, r1, #1
 313 0062 0848     		ldr	r0, .L27+12
 314 0064 8154     		strb	r1, [r0, r2]
 315 0066 01E0     		b	.L22
 316              	.L23:
 664:Generated_Source\PSoC5/CapSense_CSHL.c ****         }
 665:Generated_Source\PSoC5/CapSense_CSHL.c ****         else
 666:Generated_Source\PSoC5/CapSense_CSHL.c ****         {
 667:Generated_Source\PSoC5/CapSense_CSHL.c ****             /* Sensor inactive - reset Debounce counter */
 668:Generated_Source\PSoC5/CapSense_CSHL.c ****             CapSense_debounceCounter[debounceIndex] = debounce;
 317              		.loc 1 668 0
 318 0068 0649     		ldr	r1, .L27+12
 319 006a 8E54     		strb	r6, [r1, r2]
 320              	.L22:
 669:Generated_Source\PSoC5/CapSense_CSHL.c ****         }
 670:Generated_Source\PSoC5/CapSense_CSHL.c ****     }
 671:Generated_Source\PSoC5/CapSense_CSHL.c ****     
 672:Generated_Source\PSoC5/CapSense_CSHL.c ****     return (((CapSense_sensorOnMask[pos] & onMask) != 0u) ? 1u : 0u);
 321              		.loc 1 672 0
 322 006c 044A     		ldr	r2, .L27+8
 323              	.LVL32:
 324 006e 105D     		ldrb	r0, [r2, r4]	@ zero_extendqisi2
 325 0070 1840     		ands	r0, r3, r0
 326 0072 00D0     		beq	.L25
 327 0074 0120     		movs	r0, #1
 328              	.L25:
 673:Generated_Source\PSoC5/CapSense_CSHL.c **** }
 329              		.loc 1 673 0 discriminator 4
 330 0076 F0BD     		pop	{r4, r5, r6, r7, pc}
 331              	.LVL33:
 332              	.L28:
 333              		.align	2
 334              	.L27:
 335 0078 00000000 		.word	CapSense_widgetNumber
 336 007c 00000000 		.word	.LANCHOR0
 337 0080 00000000 		.word	CapSense_sensorOnMask
 338 0084 00000000 		.word	.LANCHOR1
 339 0088 00000000 		.word	CapSense_sensorSignal
 340              		.cfi_endproc
 341              	.LFE6:
 342              		.size	CapSense_CheckIsSensorActive, .-CapSense_CheckIsSensorActive
 343              		.section	.text.CapSense_CheckIsWidgetActive,"ax",%progbits
 344              		.align	2
 345              		.global	CapSense_CheckIsWidgetActive
 346              		.thumb
 347              		.thumb_func
 348              		.type	CapSense_CheckIsWidgetActive, %function
 349              	CapSense_CheckIsWidgetActive:
ARM GAS  C:\Users\JEFFSN~1\AppData\Local\Temp\ccG3vFpC.s 			page 19


 350              	.LFB7:
 674:Generated_Source\PSoC5/CapSense_CSHL.c **** 
 675:Generated_Source\PSoC5/CapSense_CSHL.c **** 
 676:Generated_Source\PSoC5/CapSense_CSHL.c **** /*******************************************************************************
 677:Generated_Source\PSoC5/CapSense_CSHL.c **** * Function Name: CapSense_CheckIsWidgetActive
 678:Generated_Source\PSoC5/CapSense_CSHL.c **** ********************************************************************************
 679:Generated_Source\PSoC5/CapSense_CSHL.c **** *
 680:Generated_Source\PSoC5/CapSense_CSHL.c **** * Summary:
 681:Generated_Source\PSoC5/CapSense_CSHL.c **** *  Use function CapSense_CheckIsSensorActive() to update 
 682:Generated_Source\PSoC5/CapSense_CSHL.c **** *  CapSense_sensorOnMask[] for all sensors within the widget.
 683:Generated_Source\PSoC5/CapSense_CSHL.c **** *  If one of sensors within widget is active the function return that widget is 
 684:Generated_Source\PSoC5/CapSense_CSHL.c **** *  active.
 685:Generated_Source\PSoC5/CapSense_CSHL.c **** *  The touch pad and matrix buttons widgets need to have active sensor within 
 686:Generated_Source\PSoC5/CapSense_CSHL.c **** *  col and row to return widget active status.
 687:Generated_Source\PSoC5/CapSense_CSHL.c **** *
 688:Generated_Source\PSoC5/CapSense_CSHL.c **** * Parameters:
 689:Generated_Source\PSoC5/CapSense_CSHL.c **** *  widget:  widget number.
 690:Generated_Source\PSoC5/CapSense_CSHL.c **** *
 691:Generated_Source\PSoC5/CapSense_CSHL.c **** * Return:
 692:Generated_Source\PSoC5/CapSense_CSHL.c **** *  Returns widget sensor state 1 if one or more sensors within widget is/are 
 693:Generated_Source\PSoC5/CapSense_CSHL.c **** *  active, 0 if all sensors within widget are inactive.
 694:Generated_Source\PSoC5/CapSense_CSHL.c **** *
 695:Generated_Source\PSoC5/CapSense_CSHL.c **** * Reentrant:
 696:Generated_Source\PSoC5/CapSense_CSHL.c **** *  No
 697:Generated_Source\PSoC5/CapSense_CSHL.c **** *
 698:Generated_Source\PSoC5/CapSense_CSHL.c **** *******************************************************************************/
 699:Generated_Source\PSoC5/CapSense_CSHL.c **** uint8 CapSense_CheckIsWidgetActive(uint8 widget)
 700:Generated_Source\PSoC5/CapSense_CSHL.c ****                                  
 701:Generated_Source\PSoC5/CapSense_CSHL.c **** {
 351              		.loc 1 701 0
 352              		.cfi_startproc
 353              		@ args = 0, pretend = 0, frame = 0
 354              		@ frame_needed = 0, uses_anonymous_args = 0
 355              	.LVL34:
 356 0000 70B5     		push	{r4, r5, r6, lr}
 357              		.cfi_def_cfa_offset 16
 358              		.cfi_offset 4, -16
 359              		.cfi_offset 5, -12
 360              		.cfi_offset 6, -8
 361              		.cfi_offset 14, -4
 702:Generated_Source\PSoC5/CapSense_CSHL.c ****     uint8 rawIndex = CapSense_rawDataIndex[widget];
 362              		.loc 1 702 0
 363 0002 094B     		ldr	r3, .L34
 364 0004 1C5C     		ldrb	r4, [r3, r0]	@ zero_extendqisi2
 365              	.LVL35:
 703:Generated_Source\PSoC5/CapSense_CSHL.c ****     uint8 numberOfSensors = CapSense_numberOfSensors[widget] + rawIndex;
 366              		.loc 1 703 0
 367 0006 1844     		add	r0, r0, r3
 368              	.LVL36:
 369 0008 057F     		ldrb	r5, [r0, #28]	@ zero_extendqisi2
 370 000a 2544     		add	r5, r5, r4
 371 000c EDB2     		uxtb	r5, r5
 372              	.LVL37:
 704:Generated_Source\PSoC5/CapSense_CSHL.c ****     uint8 state = 0u;
 373              		.loc 1 704 0
 374 000e 0026     		movs	r6, #0
 375              	.LVL38:
ARM GAS  C:\Users\JEFFSN~1\AppData\Local\Temp\ccG3vFpC.s 			page 20


 376              	.L31:
 705:Generated_Source\PSoC5/CapSense_CSHL.c **** 
 706:Generated_Source\PSoC5/CapSense_CSHL.c ****     /* Check all sensors of the widget */
 707:Generated_Source\PSoC5/CapSense_CSHL.c ****     do
 708:Generated_Source\PSoC5/CapSense_CSHL.c ****     {
 709:Generated_Source\PSoC5/CapSense_CSHL.c ****         if(CapSense_CheckIsSensorActive(rawIndex) != 0u)
 377              		.loc 1 709 0
 378 0010 2046     		mov	r0, r4
 379 0012 FFF7FEFF 		bl	CapSense_CheckIsSensorActive
 380              	.LVL39:
 381 0016 00B1     		cbz	r0, .L30
 710:Generated_Source\PSoC5/CapSense_CSHL.c ****         {
 711:Generated_Source\PSoC5/CapSense_CSHL.c ****             state = CapSense_SENSOR_1_IS_ACTIVE;
 382              		.loc 1 711 0
 383 0018 0126     		movs	r6, #1
 384              	.LVL40:
 385              	.L30:
 712:Generated_Source\PSoC5/CapSense_CSHL.c ****         }
 713:Generated_Source\PSoC5/CapSense_CSHL.c ****         rawIndex++;
 386              		.loc 1 713 0
 387 001a 0134     		adds	r4, r4, #1
 388              	.LVL41:
 389 001c E4B2     		uxtb	r4, r4
 390              	.LVL42:
 714:Generated_Source\PSoC5/CapSense_CSHL.c ****     }
 715:Generated_Source\PSoC5/CapSense_CSHL.c ****     while(rawIndex < numberOfSensors);
 391              		.loc 1 715 0
 392 001e A542     		cmp	r5, r4
 393 0020 F6D8     		bhi	.L31
 716:Generated_Source\PSoC5/CapSense_CSHL.c ****     
 717:Generated_Source\PSoC5/CapSense_CSHL.c **** 
 718:Generated_Source\PSoC5/CapSense_CSHL.c ****     
 719:Generated_Source\PSoC5/CapSense_CSHL.c ****     return (state);
 720:Generated_Source\PSoC5/CapSense_CSHL.c **** }
 394              		.loc 1 720 0
 395 0022 3046     		mov	r0, r6
 396 0024 70BD     		pop	{r4, r5, r6, pc}
 397              	.LVL43:
 398              	.L35:
 399 0026 00BF     		.align	2
 400              	.L34:
 401 0028 00000000 		.word	.LANCHOR2
 402              		.cfi_endproc
 403              	.LFE7:
 404              		.size	CapSense_CheckIsWidgetActive, .-CapSense_CheckIsWidgetActive
 405              		.section	.text.CapSense_CheckIsAnyWidgetActive,"ax",%progbits
 406              		.align	2
 407              		.global	CapSense_CheckIsAnyWidgetActive
 408              		.thumb
 409              		.thumb_func
 410              		.type	CapSense_CheckIsAnyWidgetActive, %function
 411              	CapSense_CheckIsAnyWidgetActive:
 412              	.LFB8:
 721:Generated_Source\PSoC5/CapSense_CSHL.c **** 
 722:Generated_Source\PSoC5/CapSense_CSHL.c **** 
 723:Generated_Source\PSoC5/CapSense_CSHL.c **** /*******************************************************************************
 724:Generated_Source\PSoC5/CapSense_CSHL.c **** * Function Name: CapSense_CheckIsAnyWidgetActive
ARM GAS  C:\Users\JEFFSN~1\AppData\Local\Temp\ccG3vFpC.s 			page 21


 725:Generated_Source\PSoC5/CapSense_CSHL.c **** ********************************************************************************
 726:Generated_Source\PSoC5/CapSense_CSHL.c **** *
 727:Generated_Source\PSoC5/CapSense_CSHL.c **** * Summary:
 728:Generated_Source\PSoC5/CapSense_CSHL.c **** *  Compares all sensors of the CapSense_signal[] array to their finger 
 729:Generated_Source\PSoC5/CapSense_CSHL.c **** *  threshold. Calls CapSense_CheckIsWidgetActive() for each widget so 
 730:Generated_Source\PSoC5/CapSense_CSHL.c **** *  the CapSense_SensorOnMask[] array is up to date after calling this 
 731:Generated_Source\PSoC5/CapSense_CSHL.c **** *  function.
 732:Generated_Source\PSoC5/CapSense_CSHL.c **** *
 733:Generated_Source\PSoC5/CapSense_CSHL.c **** * Parameters:
 734:Generated_Source\PSoC5/CapSense_CSHL.c **** *  widget:  widget number.
 735:Generated_Source\PSoC5/CapSense_CSHL.c **** *
 736:Generated_Source\PSoC5/CapSense_CSHL.c **** * Return:
 737:Generated_Source\PSoC5/CapSense_CSHL.c **** *  Returns 1 if any widget is active, 0 none of widgets are active.
 738:Generated_Source\PSoC5/CapSense_CSHL.c **** *
 739:Generated_Source\PSoC5/CapSense_CSHL.c **** * Reentrant:
 740:Generated_Source\PSoC5/CapSense_CSHL.c **** *  No
 741:Generated_Source\PSoC5/CapSense_CSHL.c **** *
 742:Generated_Source\PSoC5/CapSense_CSHL.c **** *******************************************************************************/
 743:Generated_Source\PSoC5/CapSense_CSHL.c **** uint8 CapSense_CheckIsAnyWidgetActive(void)
 744:Generated_Source\PSoC5/CapSense_CSHL.c ****                                  
 745:Generated_Source\PSoC5/CapSense_CSHL.c **** {
 413              		.loc 1 745 0
 414              		.cfi_startproc
 415              		@ args = 0, pretend = 0, frame = 0
 416              		@ frame_needed = 0, uses_anonymous_args = 0
 417 0000 38B5     		push	{r3, r4, r5, lr}
 418              		.cfi_def_cfa_offset 16
 419              		.cfi_offset 3, -16
 420              		.cfi_offset 4, -12
 421              		.cfi_offset 5, -8
 422              		.cfi_offset 14, -4
 423              	.LVL44:
 746:Generated_Source\PSoC5/CapSense_CSHL.c ****     uint8 i;
 747:Generated_Source\PSoC5/CapSense_CSHL.c ****     uint8 state = 0u;
 424              		.loc 1 747 0
 425 0002 0025     		movs	r5, #0
 748:Generated_Source\PSoC5/CapSense_CSHL.c ****     
 749:Generated_Source\PSoC5/CapSense_CSHL.c ****     for(i = 0u; i < CapSense_TOTAL_WIDGET_COUNT; i++)
 426              		.loc 1 749 0
 427 0004 2C46     		mov	r4, r5
 428 0006 06E0     		b	.L37
 429              	.LVL45:
 430              	.L39:
 750:Generated_Source\PSoC5/CapSense_CSHL.c ****     {
 751:Generated_Source\PSoC5/CapSense_CSHL.c ****         if (CapSense_CheckIsWidgetActive(i) != 0u)
 431              		.loc 1 751 0
 432 0008 2046     		mov	r0, r4
 433 000a FFF7FEFF 		bl	CapSense_CheckIsWidgetActive
 434              	.LVL46:
 435 000e 00B1     		cbz	r0, .L38
 752:Generated_Source\PSoC5/CapSense_CSHL.c ****         {
 753:Generated_Source\PSoC5/CapSense_CSHL.c ****             state = CapSense_WIDGET_IS_ACTIVE;
 436              		.loc 1 753 0
 437 0010 0125     		movs	r5, #1
 438              	.LVL47:
 439              	.L38:
 749:Generated_Source\PSoC5/CapSense_CSHL.c ****     {
ARM GAS  C:\Users\JEFFSN~1\AppData\Local\Temp\ccG3vFpC.s 			page 22


 440              		.loc 1 749 0 discriminator 2
 441 0012 0134     		adds	r4, r4, #1
 442              	.LVL48:
 443 0014 E4B2     		uxtb	r4, r4
 444              	.LVL49:
 445              	.L37:
 749:Generated_Source\PSoC5/CapSense_CSHL.c ****     {
 446              		.loc 1 749 0 is_stmt 0 discriminator 1
 447 0016 192C     		cmp	r4, #25
 448 0018 F6D9     		bls	.L39
 754:Generated_Source\PSoC5/CapSense_CSHL.c ****         }
 755:Generated_Source\PSoC5/CapSense_CSHL.c ****     }
 756:Generated_Source\PSoC5/CapSense_CSHL.c ****     
 757:Generated_Source\PSoC5/CapSense_CSHL.c **** 
 758:Generated_Source\PSoC5/CapSense_CSHL.c ****     return (state);
 759:Generated_Source\PSoC5/CapSense_CSHL.c **** }
 449              		.loc 1 759 0 is_stmt 1
 450 001a 2846     		mov	r0, r5
 451 001c 38BD     		pop	{r3, r4, r5, pc}
 452              		.cfi_endproc
 453              	.LFE8:
 454              		.size	CapSense_CheckIsAnyWidgetActive, .-CapSense_CheckIsAnyWidgetActive
 455 001e 00BF     		.section	.text.CapSense_EnableWidget,"ax",%progbits
 456              		.align	2
 457              		.global	CapSense_EnableWidget
 458              		.thumb
 459              		.thumb_func
 460              		.type	CapSense_EnableWidget, %function
 461              	CapSense_EnableWidget:
 462              	.LFB9:
 760:Generated_Source\PSoC5/CapSense_CSHL.c **** 
 761:Generated_Source\PSoC5/CapSense_CSHL.c **** 
 762:Generated_Source\PSoC5/CapSense_CSHL.c **** /*******************************************************************************
 763:Generated_Source\PSoC5/CapSense_CSHL.c **** * Function Name: CapSense_EnableWidget
 764:Generated_Source\PSoC5/CapSense_CSHL.c **** ********************************************************************************
 765:Generated_Source\PSoC5/CapSense_CSHL.c **** *
 766:Generated_Source\PSoC5/CapSense_CSHL.c **** * Summary:
 767:Generated_Source\PSoC5/CapSense_CSHL.c **** *  Enable all widget elements (sensors) to scanning process.
 768:Generated_Source\PSoC5/CapSense_CSHL.c **** *
 769:Generated_Source\PSoC5/CapSense_CSHL.c **** * Parameters:
 770:Generated_Source\PSoC5/CapSense_CSHL.c **** *  widget:  widget number.
 771:Generated_Source\PSoC5/CapSense_CSHL.c **** *
 772:Generated_Source\PSoC5/CapSense_CSHL.c **** * Return:
 773:Generated_Source\PSoC5/CapSense_CSHL.c **** *  None
 774:Generated_Source\PSoC5/CapSense_CSHL.c **** *
 775:Generated_Source\PSoC5/CapSense_CSHL.c **** * Global Variables:
 776:Generated_Source\PSoC5/CapSense_CSHL.c **** *  CapSense_sensorEnableMask[] - used to store the sensor scanning 
 777:Generated_Source\PSoC5/CapSense_CSHL.c **** *  state.
 778:Generated_Source\PSoC5/CapSense_CSHL.c **** *  CapSense_sensorEnableMask[0] contains the masked bits for sensors 
 779:Generated_Source\PSoC5/CapSense_CSHL.c **** *  0 through 7 (sensor 0 is bit 0, sensor 1 is bit 1).
 780:Generated_Source\PSoC5/CapSense_CSHL.c **** *  CapSense_sensorEnableMask[1] contains the masked bits for 
 781:Generated_Source\PSoC5/CapSense_CSHL.c **** *  sensors 8 through 15 (if needed), and so on.
 782:Generated_Source\PSoC5/CapSense_CSHL.c **** *  0 - sensor doesn't scan by CapSense_ScanEnabledWidgets().
 783:Generated_Source\PSoC5/CapSense_CSHL.c **** *  1 - sensor scans by CapSense_ScanEnabledWidgets().
 784:Generated_Source\PSoC5/CapSense_CSHL.c **** *
 785:Generated_Source\PSoC5/CapSense_CSHL.c **** * Reentrant:
 786:Generated_Source\PSoC5/CapSense_CSHL.c **** *  No
ARM GAS  C:\Users\JEFFSN~1\AppData\Local\Temp\ccG3vFpC.s 			page 23


 787:Generated_Source\PSoC5/CapSense_CSHL.c **** *
 788:Generated_Source\PSoC5/CapSense_CSHL.c **** *******************************************************************************/
 789:Generated_Source\PSoC5/CapSense_CSHL.c **** void CapSense_EnableWidget(uint8 widget)
 790:Generated_Source\PSoC5/CapSense_CSHL.c ****                                    
 791:Generated_Source\PSoC5/CapSense_CSHL.c **** {
 463              		.loc 1 791 0
 464              		.cfi_startproc
 465              		@ args = 0, pretend = 0, frame = 0
 466              		@ frame_needed = 0, uses_anonymous_args = 0
 467              		@ link register save eliminated.
 468              	.LVL50:
 469 0000 30B4     		push	{r4, r5}
 470              		.cfi_def_cfa_offset 8
 471              		.cfi_offset 4, -8
 472              		.cfi_offset 5, -4
 792:Generated_Source\PSoC5/CapSense_CSHL.c ****     uint8 pos;
 793:Generated_Source\PSoC5/CapSense_CSHL.c ****     uint8 enMask;
 794:Generated_Source\PSoC5/CapSense_CSHL.c ****     uint8 rawIndex = CapSense_rawDataIndex[widget];
 473              		.loc 1 794 0
 474 0002 0B4A     		ldr	r2, .L45
 475 0004 135C     		ldrb	r3, [r2, r0]	@ zero_extendqisi2
 476              	.LVL51:
 795:Generated_Source\PSoC5/CapSense_CSHL.c ****     uint8 numberOfSensors = CapSense_numberOfSensors[widget] + rawIndex;
 477              		.loc 1 795 0
 478 0006 1044     		add	r0, r0, r2
 479              	.LVL52:
 480 0008 057F     		ldrb	r5, [r0, #28]	@ zero_extendqisi2
 481 000a 1D44     		add	r5, r5, r3
 482 000c EDB2     		uxtb	r5, r5
 483              	.LVL53:
 484              	.L43:
 796:Generated_Source\PSoC5/CapSense_CSHL.c ****     
 797:Generated_Source\PSoC5/CapSense_CSHL.c ****     /* Enable all sensors of the widget */
 798:Generated_Source\PSoC5/CapSense_CSHL.c ****     do
 799:Generated_Source\PSoC5/CapSense_CSHL.c ****     {
 800:Generated_Source\PSoC5/CapSense_CSHL.c ****         pos = (rawIndex >> 3u);
 485              		.loc 1 800 0 discriminator 1
 486 000e D808     		lsrs	r0, r3, #3
 487              	.LVL54:
 801:Generated_Source\PSoC5/CapSense_CSHL.c ****         enMask = 0x01u << (rawIndex & 0x07u);
 488              		.loc 1 801 0 discriminator 1
 489 0010 03F00701 		and	r1, r3, #7
 490 0014 0122     		movs	r2, #1
 491 0016 8A40     		lsls	r2, r2, r1
 492 0018 D2B2     		uxtb	r2, r2
 493              	.LVL55:
 802:Generated_Source\PSoC5/CapSense_CSHL.c ****         
 803:Generated_Source\PSoC5/CapSense_CSHL.c ****         CapSense_sensorEnableMask[pos] |= enMask;
 494              		.loc 1 803 0 discriminator 1
 495 001a 064C     		ldr	r4, .L45+4
 496 001c 215C     		ldrb	r1, [r4, r0]	@ zero_extendqisi2
 497 001e 0A43     		orrs	r2, r2, r1
 498              	.LVL56:
 499 0020 2254     		strb	r2, [r4, r0]
 804:Generated_Source\PSoC5/CapSense_CSHL.c ****         rawIndex++;
 500              		.loc 1 804 0 discriminator 1
 501 0022 0133     		adds	r3, r3, #1
ARM GAS  C:\Users\JEFFSN~1\AppData\Local\Temp\ccG3vFpC.s 			page 24


 502              	.LVL57:
 503 0024 DBB2     		uxtb	r3, r3
 504              	.LVL58:
 805:Generated_Source\PSoC5/CapSense_CSHL.c ****     }
 806:Generated_Source\PSoC5/CapSense_CSHL.c ****     while(rawIndex < numberOfSensors);
 505              		.loc 1 806 0 discriminator 1
 506 0026 9D42     		cmp	r5, r3
 507 0028 F1D8     		bhi	.L43
 807:Generated_Source\PSoC5/CapSense_CSHL.c ****     
 808:Generated_Source\PSoC5/CapSense_CSHL.c **** 
 809:Generated_Source\PSoC5/CapSense_CSHL.c **** }
 508              		.loc 1 809 0
 509 002a 30BC     		pop	{r4, r5}
 510              		.cfi_restore 5
 511              		.cfi_restore 4
 512              		.cfi_def_cfa_offset 0
 513              	.LVL59:
 514 002c 7047     		bx	lr
 515              	.L46:
 516 002e 00BF     		.align	2
 517              	.L45:
 518 0030 00000000 		.word	.LANCHOR2
 519 0034 00000000 		.word	CapSense_sensorEnableMask
 520              		.cfi_endproc
 521              	.LFE9:
 522              		.size	CapSense_EnableWidget, .-CapSense_EnableWidget
 523              		.section	.text.CapSense_DisableWidget,"ax",%progbits
 524              		.align	2
 525              		.global	CapSense_DisableWidget
 526              		.thumb
 527              		.thumb_func
 528              		.type	CapSense_DisableWidget, %function
 529              	CapSense_DisableWidget:
 530              	.LFB10:
 810:Generated_Source\PSoC5/CapSense_CSHL.c **** 
 811:Generated_Source\PSoC5/CapSense_CSHL.c **** 
 812:Generated_Source\PSoC5/CapSense_CSHL.c **** /*******************************************************************************
 813:Generated_Source\PSoC5/CapSense_CSHL.c **** * Function Name: CapSense_DisableWidget
 814:Generated_Source\PSoC5/CapSense_CSHL.c **** ********************************************************************************
 815:Generated_Source\PSoC5/CapSense_CSHL.c **** *
 816:Generated_Source\PSoC5/CapSense_CSHL.c **** * Summary:
 817:Generated_Source\PSoC5/CapSense_CSHL.c **** *  Disable all widget elements (sensors) from scanning process.
 818:Generated_Source\PSoC5/CapSense_CSHL.c **** *
 819:Generated_Source\PSoC5/CapSense_CSHL.c **** * Parameters:
 820:Generated_Source\PSoC5/CapSense_CSHL.c **** *  widget:  widget number.
 821:Generated_Source\PSoC5/CapSense_CSHL.c **** *
 822:Generated_Source\PSoC5/CapSense_CSHL.c **** * Return:
 823:Generated_Source\PSoC5/CapSense_CSHL.c **** *  None
 824:Generated_Source\PSoC5/CapSense_CSHL.c **** *
 825:Generated_Source\PSoC5/CapSense_CSHL.c **** * Global Variables:
 826:Generated_Source\PSoC5/CapSense_CSHL.c **** *  CapSense_sensorEnableMask[] - used to store the sensor scanning 
 827:Generated_Source\PSoC5/CapSense_CSHL.c **** *  state.
 828:Generated_Source\PSoC5/CapSense_CSHL.c **** *  CapSense_sensorEnableMask[0] contains the masked bits for sensors 
 829:Generated_Source\PSoC5/CapSense_CSHL.c **** *  0 through 7 (sensor 0 is bit 0, sensor 1 is bit 1).
 830:Generated_Source\PSoC5/CapSense_CSHL.c **** *  CapSense_sensorEnableMask[1] contains the masked bits for 
 831:Generated_Source\PSoC5/CapSense_CSHL.c **** *  sensors 8 through 15 (if needed), and so on.
 832:Generated_Source\PSoC5/CapSense_CSHL.c **** *  0 - sensor doesn't scan by CapSense_ScanEnabledWidgets().
ARM GAS  C:\Users\JEFFSN~1\AppData\Local\Temp\ccG3vFpC.s 			page 25


 833:Generated_Source\PSoC5/CapSense_CSHL.c **** *  1 - sensor scans by CapSense_ScanEnabledWidgets().
 834:Generated_Source\PSoC5/CapSense_CSHL.c **** *
 835:Generated_Source\PSoC5/CapSense_CSHL.c **** * Reentrant:
 836:Generated_Source\PSoC5/CapSense_CSHL.c **** *  No
 837:Generated_Source\PSoC5/CapSense_CSHL.c **** *
 838:Generated_Source\PSoC5/CapSense_CSHL.c **** *******************************************************************************/
 839:Generated_Source\PSoC5/CapSense_CSHL.c **** void CapSense_DisableWidget(uint8 widget)
 840:Generated_Source\PSoC5/CapSense_CSHL.c ****                                     
 841:Generated_Source\PSoC5/CapSense_CSHL.c **** {
 531              		.loc 1 841 0
 532              		.cfi_startproc
 533              		@ args = 0, pretend = 0, frame = 0
 534              		@ frame_needed = 0, uses_anonymous_args = 0
 535              		@ link register save eliminated.
 536              	.LVL60:
 537 0000 30B4     		push	{r4, r5}
 538              		.cfi_def_cfa_offset 8
 539              		.cfi_offset 4, -8
 540              		.cfi_offset 5, -4
 842:Generated_Source\PSoC5/CapSense_CSHL.c ****     uint8 pos;
 843:Generated_Source\PSoC5/CapSense_CSHL.c ****     uint8 enMask;
 844:Generated_Source\PSoC5/CapSense_CSHL.c ****     uint8 rawIndex = CapSense_rawDataIndex[widget];
 541              		.loc 1 844 0
 542 0002 0B4A     		ldr	r2, .L50
 543 0004 135C     		ldrb	r3, [r2, r0]	@ zero_extendqisi2
 544              	.LVL61:
 845:Generated_Source\PSoC5/CapSense_CSHL.c ****     uint8 numberOfSensors = CapSense_numberOfSensors[widget] + rawIndex;
 545              		.loc 1 845 0
 546 0006 1044     		add	r0, r0, r2
 547              	.LVL62:
 548 0008 057F     		ldrb	r5, [r0, #28]	@ zero_extendqisi2
 549 000a 1D44     		add	r5, r5, r3
 550 000c EDB2     		uxtb	r5, r5
 551              	.LVL63:
 552              	.L48:
 846:Generated_Source\PSoC5/CapSense_CSHL.c ****    
 847:Generated_Source\PSoC5/CapSense_CSHL.c ****     /* Disable all sensors of the widget */
 848:Generated_Source\PSoC5/CapSense_CSHL.c ****     do
 849:Generated_Source\PSoC5/CapSense_CSHL.c ****     {
 850:Generated_Source\PSoC5/CapSense_CSHL.c ****         pos = (rawIndex >> 3u);
 553              		.loc 1 850 0 discriminator 1
 554 000e D808     		lsrs	r0, r3, #3
 555              	.LVL64:
 851:Generated_Source\PSoC5/CapSense_CSHL.c ****         enMask = 0x01u << (rawIndex & 0x07u);
 556              		.loc 1 851 0 discriminator 1
 557 0010 03F00701 		and	r1, r3, #7
 558 0014 0122     		movs	r2, #1
 559 0016 8A40     		lsls	r2, r2, r1
 560 0018 D2B2     		uxtb	r2, r2
 561              	.LVL65:
 852:Generated_Source\PSoC5/CapSense_CSHL.c ****         
 853:Generated_Source\PSoC5/CapSense_CSHL.c ****         CapSense_sensorEnableMask[pos] &= (uint8)~enMask;
 562              		.loc 1 853 0 discriminator 1
 563 001a 064C     		ldr	r4, .L50+4
 564 001c 215C     		ldrb	r1, [r4, r0]	@ zero_extendqisi2
 565 001e 21EA0202 		bic	r2, r1, r2
 566              	.LVL66:
ARM GAS  C:\Users\JEFFSN~1\AppData\Local\Temp\ccG3vFpC.s 			page 26


 567 0022 2254     		strb	r2, [r4, r0]
 854:Generated_Source\PSoC5/CapSense_CSHL.c ****         rawIndex++;
 568              		.loc 1 854 0 discriminator 1
 569 0024 0133     		adds	r3, r3, #1
 570              	.LVL67:
 571 0026 DBB2     		uxtb	r3, r3
 572              	.LVL68:
 855:Generated_Source\PSoC5/CapSense_CSHL.c ****     }
 856:Generated_Source\PSoC5/CapSense_CSHL.c ****     while(rawIndex < numberOfSensors);
 573              		.loc 1 856 0 discriminator 1
 574 0028 9D42     		cmp	r5, r3
 575 002a F0D8     		bhi	.L48
 857:Generated_Source\PSoC5/CapSense_CSHL.c ****     
 858:Generated_Source\PSoC5/CapSense_CSHL.c **** 
 859:Generated_Source\PSoC5/CapSense_CSHL.c **** }
 576              		.loc 1 859 0
 577 002c 30BC     		pop	{r4, r5}
 578              		.cfi_restore 5
 579              		.cfi_restore 4
 580              		.cfi_def_cfa_offset 0
 581              	.LVL69:
 582 002e 7047     		bx	lr
 583              	.L51:
 584              		.align	2
 585              	.L50:
 586 0030 00000000 		.word	.LANCHOR2
 587 0034 00000000 		.word	CapSense_sensorEnableMask
 588              		.cfi_endproc
 589              	.LFE10:
 590              		.size	CapSense_DisableWidget, .-CapSense_DisableWidget
 591              		.section	.text.CapSense_IIR4Filter,"ax",%progbits
 592              		.align	2
 593              		.global	CapSense_IIR4Filter
 594              		.thumb
 595              		.thumb_func
 596              		.type	CapSense_IIR4Filter, %function
 597              	CapSense_IIR4Filter:
 598              	.LFB11:
 860:Generated_Source\PSoC5/CapSense_CSHL.c **** #if(CapSense_TOTAL_CENTROIDS_COUNT)
 861:Generated_Source\PSoC5/CapSense_CSHL.c ****     /*******************************************************************************
 862:Generated_Source\PSoC5/CapSense_CSHL.c ****     * Function Name: CapSense_FindMaximum
 863:Generated_Source\PSoC5/CapSense_CSHL.c ****     ********************************************************************************
 864:Generated_Source\PSoC5/CapSense_CSHL.c ****     *
 865:Generated_Source\PSoC5/CapSense_CSHL.c ****     * Summary:
 866:Generated_Source\PSoC5/CapSense_CSHL.c ****     *  Finds index of maximum element within defined centroid. Checks 
 867:Generated_Source\PSoC5/CapSense_CSHL.c ****     *  CapSense_SensorSignal[] within defined cenrtoid and 
 868:Generated_Source\PSoC5/CapSense_CSHL.c ****     *  returns index of maximum element. The values below finger threshold are 
 869:Generated_Source\PSoC5/CapSense_CSHL.c ****     *  ignored.
 870:Generated_Source\PSoC5/CapSense_CSHL.c ****     *  The centrod defines by offset of first element and number of elements - count.
 871:Generated_Source\PSoC5/CapSense_CSHL.c ****     *  The diplexed centroid requires at least consecutive two elements above
 872:Generated_Source\PSoC5/CapSense_CSHL.c ****     *  FingerThreshold to find index of maximum element.
 873:Generated_Source\PSoC5/CapSense_CSHL.c ****     * 
 874:Generated_Source\PSoC5/CapSense_CSHL.c ****     * Parameters:
 875:Generated_Source\PSoC5/CapSense_CSHL.c ****     *  offset:  Start index of cetroid in CapSense_sensorSignal[] array.
 876:Generated_Source\PSoC5/CapSense_CSHL.c ****     *  count:   number of elements within centroid.
 877:Generated_Source\PSoC5/CapSense_CSHL.c ****     *  fingerThreshold:  Finger threshould.
 878:Generated_Source\PSoC5/CapSense_CSHL.c ****     *  diplex:   pointer to diplex table.
ARM GAS  C:\Users\JEFFSN~1\AppData\Local\Temp\ccG3vFpC.s 			page 27


 879:Generated_Source\PSoC5/CapSense_CSHL.c ****     * 
 880:Generated_Source\PSoC5/CapSense_CSHL.c ****     * Return:
 881:Generated_Source\PSoC5/CapSense_CSHL.c ****     *  Returns index of maximum element within defined centroid.
 882:Generated_Source\PSoC5/CapSense_CSHL.c ****     *  If index of maximum element doesn't find the 0xFF returns.
 883:Generated_Source\PSoC5/CapSense_CSHL.c ****     * 
 884:Generated_Source\PSoC5/CapSense_CSHL.c ****     *******************************************************************************/
 885:Generated_Source\PSoC5/CapSense_CSHL.c ****     #if (CapSense_IS_DIPLEX_SLIDER)
 886:Generated_Source\PSoC5/CapSense_CSHL.c ****         uint8 CapSense_FindMaximum(uint8 offset, uint8 count, uint16 fingerThreshold, const uint8 C
 887:Generated_Source\PSoC5/CapSense_CSHL.c **** 	                                       
 888:Generated_Source\PSoC5/CapSense_CSHL.c ****     #else 
 889:Generated_Source\PSoC5/CapSense_CSHL.c ****         uint8 CapSense_FindMaximum(uint8 offset, uint8 count, uint16 fingerThreshold)
 890:Generated_Source\PSoC5/CapSense_CSHL.c **** 	                                       
 891:Generated_Source\PSoC5/CapSense_CSHL.c ****     #endif /* (CapSense_IS_DIPLEX_SLIDER) */
 892:Generated_Source\PSoC5/CapSense_CSHL.c ****     {
 893:Generated_Source\PSoC5/CapSense_CSHL.c ****         uint8 i;
 894:Generated_Source\PSoC5/CapSense_CSHL.c ****         #if (CapSense_IS_DIPLEX_SLIDER)        
 895:Generated_Source\PSoC5/CapSense_CSHL.c ****             uint8 curPos = 0u;
 896:Generated_Source\PSoC5/CapSense_CSHL.c ****             /* No centroid at the Start */
 897:Generated_Source\PSoC5/CapSense_CSHL.c ****             uint8 curCntrdSize = 0u;
 898:Generated_Source\PSoC5/CapSense_CSHL.c ****             uint8 curCtrdStartPos = 0xFFu;
 899:Generated_Source\PSoC5/CapSense_CSHL.c ****             /* The biggset centroid is zero */
 900:Generated_Source\PSoC5/CapSense_CSHL.c ****             uint8 biggestCtrdSize = 0u;
 901:Generated_Source\PSoC5/CapSense_CSHL.c ****             uint8 biggestCtrdStartPos = 0u;
 902:Generated_Source\PSoC5/CapSense_CSHL.c ****         #endif /* (CapSense_IS_DIPLEX_SLIDER) */
 903:Generated_Source\PSoC5/CapSense_CSHL.c ****         uint8 maximum = 0xFFu;
 904:Generated_Source\PSoC5/CapSense_CSHL.c ****         uint16 temp = 0u;
 905:Generated_Source\PSoC5/CapSense_CSHL.c ****         uint16 *startOfSlider = &CapSense_sensorSignal[offset]; 
 906:Generated_Source\PSoC5/CapSense_CSHL.c **** 
 907:Generated_Source\PSoC5/CapSense_CSHL.c ****         #if (CapSense_IS_DIPLEX_SLIDER)        
 908:Generated_Source\PSoC5/CapSense_CSHL.c ****             if(diplex != 0u)
 909:Generated_Source\PSoC5/CapSense_CSHL.c ****             {
 910:Generated_Source\PSoC5/CapSense_CSHL.c ****                 /* Initialize */
 911:Generated_Source\PSoC5/CapSense_CSHL.c ****                 i = 0u;
 912:Generated_Source\PSoC5/CapSense_CSHL.c ****                 
 913:Generated_Source\PSoC5/CapSense_CSHL.c ****                 /* Make slider x2 as Diplexed */
 914:Generated_Source\PSoC5/CapSense_CSHL.c ****                 count <<= 1u;
 915:Generated_Source\PSoC5/CapSense_CSHL.c ****                 while(1u)
 916:Generated_Source\PSoC5/CapSense_CSHL.c ****                 { 
 917:Generated_Source\PSoC5/CapSense_CSHL.c ****                     if (startOfSlider[curPos] > 0u)    /* Looking for centroids */
 918:Generated_Source\PSoC5/CapSense_CSHL.c ****                     {
 919:Generated_Source\PSoC5/CapSense_CSHL.c ****                         if (curCtrdStartPos == 0xFFu)
 920:Generated_Source\PSoC5/CapSense_CSHL.c ****                         {
 921:Generated_Source\PSoC5/CapSense_CSHL.c ****                             /* Start of centroid */
 922:Generated_Source\PSoC5/CapSense_CSHL.c ****                             curCtrdStartPos = i;
 923:Generated_Source\PSoC5/CapSense_CSHL.c ****                             curCntrdSize++;
 924:Generated_Source\PSoC5/CapSense_CSHL.c ****                         }
 925:Generated_Source\PSoC5/CapSense_CSHL.c ****                         else
 926:Generated_Source\PSoC5/CapSense_CSHL.c ****                         {
 927:Generated_Source\PSoC5/CapSense_CSHL.c ****                             curCntrdSize++;
 928:Generated_Source\PSoC5/CapSense_CSHL.c ****                         }
 929:Generated_Source\PSoC5/CapSense_CSHL.c ****                     }
 930:Generated_Source\PSoC5/CapSense_CSHL.c ****                     else   /* Select the bigest and indicate zero start */
 931:Generated_Source\PSoC5/CapSense_CSHL.c ****                     {          
 932:Generated_Source\PSoC5/CapSense_CSHL.c ****                         if(curCntrdSize > 0u)
 933:Generated_Source\PSoC5/CapSense_CSHL.c ****                         {
 934:Generated_Source\PSoC5/CapSense_CSHL.c ****                             /* We are in the end of current */
 935:Generated_Source\PSoC5/CapSense_CSHL.c ****                             if(curCntrdSize > biggestCtrdSize)
ARM GAS  C:\Users\JEFFSN~1\AppData\Local\Temp\ccG3vFpC.s 			page 28


 936:Generated_Source\PSoC5/CapSense_CSHL.c ****                             {
 937:Generated_Source\PSoC5/CapSense_CSHL.c ****                                 biggestCtrdSize = curCntrdSize;
 938:Generated_Source\PSoC5/CapSense_CSHL.c ****                                 biggestCtrdStartPos = curCtrdStartPos;
 939:Generated_Source\PSoC5/CapSense_CSHL.c ****                             }
 940:Generated_Source\PSoC5/CapSense_CSHL.c ****                             
 941:Generated_Source\PSoC5/CapSense_CSHL.c ****                             curCntrdSize = 0u;
 942:Generated_Source\PSoC5/CapSense_CSHL.c ****                             curCtrdStartPos = 0xFFu;
 943:Generated_Source\PSoC5/CapSense_CSHL.c ****                         }
 944:Generated_Source\PSoC5/CapSense_CSHL.c ****                     }
 945:Generated_Source\PSoC5/CapSense_CSHL.c ****                     
 946:Generated_Source\PSoC5/CapSense_CSHL.c ****                     i++; 
 947:Generated_Source\PSoC5/CapSense_CSHL.c ****                     curPos = diplex[i];
 948:Generated_Source\PSoC5/CapSense_CSHL.c ****                     if(i == count)
 949:Generated_Source\PSoC5/CapSense_CSHL.c ****                     {
 950:Generated_Source\PSoC5/CapSense_CSHL.c ****                         break;
 951:Generated_Source\PSoC5/CapSense_CSHL.c ****                     }            
 952:Generated_Source\PSoC5/CapSense_CSHL.c ****                 }
 953:Generated_Source\PSoC5/CapSense_CSHL.c ****                     
 954:Generated_Source\PSoC5/CapSense_CSHL.c ****                     /* Find the biggest centroid if two are the same size, last one wins
 955:Generated_Source\PSoC5/CapSense_CSHL.c ****                        We are in the end of current */
 956:Generated_Source\PSoC5/CapSense_CSHL.c ****                 if (curCntrdSize >= biggestCtrdSize) 
 957:Generated_Source\PSoC5/CapSense_CSHL.c ****                 {
 958:Generated_Source\PSoC5/CapSense_CSHL.c ****                     biggestCtrdSize = curCntrdSize;
 959:Generated_Source\PSoC5/CapSense_CSHL.c ****                     biggestCtrdStartPos = curCtrdStartPos;
 960:Generated_Source\PSoC5/CapSense_CSHL.c ****                 }
 961:Generated_Source\PSoC5/CapSense_CSHL.c ****             }
 962:Generated_Source\PSoC5/CapSense_CSHL.c ****             else
 963:Generated_Source\PSoC5/CapSense_CSHL.c ****             {
 964:Generated_Source\PSoC5/CapSense_CSHL.c ****                 /* Without diplexing */ 
 965:Generated_Source\PSoC5/CapSense_CSHL.c ****                 biggestCtrdSize = count;
 966:Generated_Source\PSoC5/CapSense_CSHL.c ****             }
 967:Generated_Source\PSoC5/CapSense_CSHL.c ****                         
 968:Generated_Source\PSoC5/CapSense_CSHL.c **** 
 969:Generated_Source\PSoC5/CapSense_CSHL.c ****             /* Check centroid size */
 970:Generated_Source\PSoC5/CapSense_CSHL.c ****             #if (CapSense_IS_NON_DIPLEX_SLIDER)
 971:Generated_Source\PSoC5/CapSense_CSHL.c ****                 if((biggestCtrdSize >= 2u) || ((biggestCtrdSize == 1u) && (diplex == 0u)))
 972:Generated_Source\PSoC5/CapSense_CSHL.c ****             #else                    
 973:Generated_Source\PSoC5/CapSense_CSHL.c ****                 if(biggestCtrdSize >= 2u)
 974:Generated_Source\PSoC5/CapSense_CSHL.c ****             #endif /* (CapSense_IS_NON_DIPLEX_SLIDER) */
 975:Generated_Source\PSoC5/CapSense_CSHL.c ****                 {
 976:Generated_Source\PSoC5/CapSense_CSHL.c ****                     for (i = biggestCtrdStartPos; i < (biggestCtrdStartPos + biggestCtrdSize); i++)
 977:Generated_Source\PSoC5/CapSense_CSHL.c ****                     {
 978:Generated_Source\PSoC5/CapSense_CSHL.c ****                         #if (CapSense_IS_DIPLEX_SLIDER && CapSense_IS_NON_DIPLEX_SLIDER)
 979:Generated_Source\PSoC5/CapSense_CSHL.c ****                             if (diplex == 0u)
 980:Generated_Source\PSoC5/CapSense_CSHL.c ****                             {
 981:Generated_Source\PSoC5/CapSense_CSHL.c ****                                 curPos = i;
 982:Generated_Source\PSoC5/CapSense_CSHL.c ****                             }
 983:Generated_Source\PSoC5/CapSense_CSHL.c ****                             else
 984:Generated_Source\PSoC5/CapSense_CSHL.c ****                             {
 985:Generated_Source\PSoC5/CapSense_CSHL.c ****                                 curPos = diplex[i];
 986:Generated_Source\PSoC5/CapSense_CSHL.c ****                             }                    
 987:Generated_Source\PSoC5/CapSense_CSHL.c ****                         #elif (CapSense_IS_DIPLEX_SLIDER)                    
 988:Generated_Source\PSoC5/CapSense_CSHL.c ****                             curPos = diplex[i];                    
 989:Generated_Source\PSoC5/CapSense_CSHL.c ****                         #endif /* (CapSense_IS_DIPLEX_SLIDER && CapSense_IS_NON_DIPLEX_SLIDER) */
 990:Generated_Source\PSoC5/CapSense_CSHL.c ****                         /* Looking for the grater element within centroid */
 991:Generated_Source\PSoC5/CapSense_CSHL.c ****                         if(startOfSlider[curPos] > fingerThreshold)
 992:Generated_Source\PSoC5/CapSense_CSHL.c ****                         {
ARM GAS  C:\Users\JEFFSN~1\AppData\Local\Temp\ccG3vFpC.s 			page 29


 993:Generated_Source\PSoC5/CapSense_CSHL.c ****                             if(startOfSlider[curPos] > temp)
 994:Generated_Source\PSoC5/CapSense_CSHL.c ****                             {
 995:Generated_Source\PSoC5/CapSense_CSHL.c ****                                 maximum = i;
 996:Generated_Source\PSoC5/CapSense_CSHL.c ****                                 temp = startOfSlider[curPos];
 997:Generated_Source\PSoC5/CapSense_CSHL.c ****                             }
 998:Generated_Source\PSoC5/CapSense_CSHL.c ****                         }
 999:Generated_Source\PSoC5/CapSense_CSHL.c ****                     }
1000:Generated_Source\PSoC5/CapSense_CSHL.c ****                 } 
1001:Generated_Source\PSoC5/CapSense_CSHL.c ****         #else
1002:Generated_Source\PSoC5/CapSense_CSHL.c ****             for (i = 0u; i < count; i++)
1003:Generated_Source\PSoC5/CapSense_CSHL.c ****             {                      
1004:Generated_Source\PSoC5/CapSense_CSHL.c ****                 /* Looking for the grater element within centroid */
1005:Generated_Source\PSoC5/CapSense_CSHL.c ****                 if(startOfSlider[i] > fingerThreshold)
1006:Generated_Source\PSoC5/CapSense_CSHL.c ****                 {
1007:Generated_Source\PSoC5/CapSense_CSHL.c ****                     if(startOfSlider[i] > temp)
1008:Generated_Source\PSoC5/CapSense_CSHL.c ****                     {
1009:Generated_Source\PSoC5/CapSense_CSHL.c ****                         maximum = i;
1010:Generated_Source\PSoC5/CapSense_CSHL.c ****                         temp = startOfSlider[i];
1011:Generated_Source\PSoC5/CapSense_CSHL.c ****                     }
1012:Generated_Source\PSoC5/CapSense_CSHL.c ****                 }
1013:Generated_Source\PSoC5/CapSense_CSHL.c ****             }    
1014:Generated_Source\PSoC5/CapSense_CSHL.c ****         #endif /* (CapSense_IS_DIPLEX_SLIDER) */
1015:Generated_Source\PSoC5/CapSense_CSHL.c ****         return (maximum);
1016:Generated_Source\PSoC5/CapSense_CSHL.c ****     }
1017:Generated_Source\PSoC5/CapSense_CSHL.c ****     
1018:Generated_Source\PSoC5/CapSense_CSHL.c ****     
1019:Generated_Source\PSoC5/CapSense_CSHL.c ****     /*******************************************************************************
1020:Generated_Source\PSoC5/CapSense_CSHL.c ****     * Function Name: CapSense_CalcCentroid
1021:Generated_Source\PSoC5/CapSense_CSHL.c ****     ********************************************************************************
1022:Generated_Source\PSoC5/CapSense_CSHL.c ****     *
1023:Generated_Source\PSoC5/CapSense_CSHL.c ****     * Summary:
1024:Generated_Source\PSoC5/CapSense_CSHL.c ****     *  Returns position value calculated accoring index of maximum element and API
1025:Generated_Source\PSoC5/CapSense_CSHL.c ****     *  resolution.
1026:Generated_Source\PSoC5/CapSense_CSHL.c ****     *
1027:Generated_Source\PSoC5/CapSense_CSHL.c ****     * Parameters:
1028:Generated_Source\PSoC5/CapSense_CSHL.c ****     *  type:  widget type.
1029:Generated_Source\PSoC5/CapSense_CSHL.c ****     *  diplex:  pointer to diplex table.
1030:Generated_Source\PSoC5/CapSense_CSHL.c ****     *  maximum:  Index of maximum element within centroid.
1031:Generated_Source\PSoC5/CapSense_CSHL.c ****     *  offset:   Start index of cetroid in CapSense_SensorSignal[] array.
1032:Generated_Source\PSoC5/CapSense_CSHL.c ****     *  count:    Number of elements within centroid.
1033:Generated_Source\PSoC5/CapSense_CSHL.c ****     *  resolution:  multiplicator calculated according to centroid type and
1034:Generated_Source\PSoC5/CapSense_CSHL.c ****     *  API resolution.
1035:Generated_Source\PSoC5/CapSense_CSHL.c ****     *  noiseThreshold:  Noise threshould.
1036:Generated_Source\PSoC5/CapSense_CSHL.c ****     * 
1037:Generated_Source\PSoC5/CapSense_CSHL.c ****     * Return:
1038:Generated_Source\PSoC5/CapSense_CSHL.c ****     *  Returns position value of the slider.
1039:Generated_Source\PSoC5/CapSense_CSHL.c ****     * 
1040:Generated_Source\PSoC5/CapSense_CSHL.c ****     *
1041:Generated_Source\PSoC5/CapSense_CSHL.c ****     * Reentrant:
1042:Generated_Source\PSoC5/CapSense_CSHL.c ****     *  No.
1043:Generated_Source\PSoC5/CapSense_CSHL.c ****     *
1044:Generated_Source\PSoC5/CapSense_CSHL.c ****     *******************************************************************************/
1045:Generated_Source\PSoC5/CapSense_CSHL.c ****     uint8 CapSense_CalcCentroid(uint8 maximum, uint8 offset, 
1046:Generated_Source\PSoC5/CapSense_CSHL.c ****                                         uint8 count, uint16 resolution, uint16 noiseThreshold)
1047:Generated_Source\PSoC5/CapSense_CSHL.c **** 	                                    
1048:Generated_Source\PSoC5/CapSense_CSHL.c ****     {
1049:Generated_Source\PSoC5/CapSense_CSHL.c ****         #if ((CapSense_TOTAL_LINEAR_SLIDERS_COUNT > 0u) || (CapSense_TOTAL_TOUCH_PADS_COUNT > 0u))
ARM GAS  C:\Users\JEFFSN~1\AppData\Local\Temp\ccG3vFpC.s 			page 30


1050:Generated_Source\PSoC5/CapSense_CSHL.c ****             uint8 posPrev = 0u;
1051:Generated_Source\PSoC5/CapSense_CSHL.c ****             uint8 posNext = 0u;
1052:Generated_Source\PSoC5/CapSense_CSHL.c ****         #endif /* ((CapSense_TOTAL_LINEAR_SLIDERS_COUNT>0u) || (CapSense_TOTAL_TOUCH_PADS_COUNT>0u)
1053:Generated_Source\PSoC5/CapSense_CSHL.c ****                
1054:Generated_Source\PSoC5/CapSense_CSHL.c ****         #if (CapSense_IS_DIPLEX_SLIDER)                
1055:Generated_Source\PSoC5/CapSense_CSHL.c ****             uint8 pos;
1056:Generated_Source\PSoC5/CapSense_CSHL.c ****         #endif /* (CapSense_IS_DIPLEX_SLIDER) */
1057:Generated_Source\PSoC5/CapSense_CSHL.c ****         
1058:Generated_Source\PSoC5/CapSense_CSHL.c ****         /* Helps while centroid calulation */
1059:Generated_Source\PSoC5/CapSense_CSHL.c ****         static uint16 CapSense_centroid[3u];
1060:Generated_Source\PSoC5/CapSense_CSHL.c **** 
1061:Generated_Source\PSoC5/CapSense_CSHL.c ****         uint8 position;
1062:Generated_Source\PSoC5/CapSense_CSHL.c ****         uint32 numerator;
1063:Generated_Source\PSoC5/CapSense_CSHL.c ****         int32 denominator;
1064:Generated_Source\PSoC5/CapSense_CSHL.c ****         uint16 *startOfSlider = &CapSense_sensorSignal[offset];
1065:Generated_Source\PSoC5/CapSense_CSHL.c ****                     
1066:Generated_Source\PSoC5/CapSense_CSHL.c ****         #if (CapSense_ADD_SLIDER_TYPE)
1067:Generated_Source\PSoC5/CapSense_CSHL.c ****             if(type == CapSense_TYPE_RADIAL_SLIDER)
1068:Generated_Source\PSoC5/CapSense_CSHL.c ****             {
1069:Generated_Source\PSoC5/CapSense_CSHL.c ****         #endif /* (CapSense_ADD_SLIDER_TYPE) */
1070:Generated_Source\PSoC5/CapSense_CSHL.c **** 
1071:Generated_Source\PSoC5/CapSense_CSHL.c ****             #if (CapSense_TOTAL_RADIAL_SLIDERS_COUNT > 0u)                
1072:Generated_Source\PSoC5/CapSense_CSHL.c ****                 /* Copy Signal for found centriod */
1073:Generated_Source\PSoC5/CapSense_CSHL.c ****                 CapSense_centroid[CapSense_POS] = startOfSlider[maximum];
1074:Generated_Source\PSoC5/CapSense_CSHL.c ****                  
1075:Generated_Source\PSoC5/CapSense_CSHL.c ****                 /* Check borders for ROTARY Slider */
1076:Generated_Source\PSoC5/CapSense_CSHL.c ****                 if (maximum == 0u)                   /* Start of centroid */
1077:Generated_Source\PSoC5/CapSense_CSHL.c ****                 { 
1078:Generated_Source\PSoC5/CapSense_CSHL.c ****                     CapSense_centroid[CapSense_POS_PREV] = startOfSlider[count - 1u];
1079:Generated_Source\PSoC5/CapSense_CSHL.c ****                     CapSense_centroid[CapSense_POS_NEXT] = startOfSlider[1u];
1080:Generated_Source\PSoC5/CapSense_CSHL.c ****                 }
1081:Generated_Source\PSoC5/CapSense_CSHL.c ****                 else if (maximum == (count - 1u))    /* End of centroid */
1082:Generated_Source\PSoC5/CapSense_CSHL.c ****                 {
1083:Generated_Source\PSoC5/CapSense_CSHL.c ****                     CapSense_centroid[CapSense_POS_PREV] = startOfSlider[maximum - 1u];
1084:Generated_Source\PSoC5/CapSense_CSHL.c ****                     CapSense_centroid[CapSense_POS_NEXT] = startOfSlider[0u];
1085:Generated_Source\PSoC5/CapSense_CSHL.c ****                 }
1086:Generated_Source\PSoC5/CapSense_CSHL.c ****                 else                                /* Not first Not last */
1087:Generated_Source\PSoC5/CapSense_CSHL.c ****                 {
1088:Generated_Source\PSoC5/CapSense_CSHL.c ****                     CapSense_centroid[CapSense_POS_PREV] = startOfSlider[maximum - 1u];
1089:Generated_Source\PSoC5/CapSense_CSHL.c ****                     CapSense_centroid[CapSense_POS_NEXT] = startOfSlider[maximum + 1u];
1090:Generated_Source\PSoC5/CapSense_CSHL.c ****                 }
1091:Generated_Source\PSoC5/CapSense_CSHL.c ****             #endif /* (CapSense_TOTAL_RADIAL_SLIDERS_COUNT > 0u) */
1092:Generated_Source\PSoC5/CapSense_CSHL.c **** 
1093:Generated_Source\PSoC5/CapSense_CSHL.c ****         #if (CapSense_ADD_SLIDER_TYPE)
1094:Generated_Source\PSoC5/CapSense_CSHL.c ****             }
1095:Generated_Source\PSoC5/CapSense_CSHL.c ****             else
1096:Generated_Source\PSoC5/CapSense_CSHL.c ****             {
1097:Generated_Source\PSoC5/CapSense_CSHL.c ****         #endif /* (CapSense_ADD_SLIDER_TYPE) */
1098:Generated_Source\PSoC5/CapSense_CSHL.c **** 
1099:Generated_Source\PSoC5/CapSense_CSHL.c ****             #if ((CapSense_TOTAL_LINEAR_SLIDERS_COUNT > 0u) || (CapSense_TOTAL_TOUCH_PADS_COUNT > 0
1100:Generated_Source\PSoC5/CapSense_CSHL.c ****                 #if (CapSense_IS_DIPLEX_SLIDER && CapSense_IS_NON_DIPLEX_SLIDER)                   
1101:Generated_Source\PSoC5/CapSense_CSHL.c ****                     /* Calculate next and previous near to maximum */
1102:Generated_Source\PSoC5/CapSense_CSHL.c ****                     if(diplex == 0u)
1103:Generated_Source\PSoC5/CapSense_CSHL.c ****                     {
1104:Generated_Source\PSoC5/CapSense_CSHL.c ****                         pos     = maximum;
1105:Generated_Source\PSoC5/CapSense_CSHL.c ****                         posPrev = maximum - 1u;
1106:Generated_Source\PSoC5/CapSense_CSHL.c ****                         posNext = maximum + 1u; 
ARM GAS  C:\Users\JEFFSN~1\AppData\Local\Temp\ccG3vFpC.s 			page 31


1107:Generated_Source\PSoC5/CapSense_CSHL.c ****                     }
1108:Generated_Source\PSoC5/CapSense_CSHL.c ****                     else
1109:Generated_Source\PSoC5/CapSense_CSHL.c ****                     {
1110:Generated_Source\PSoC5/CapSense_CSHL.c ****                         pos     = diplex[maximum];
1111:Generated_Source\PSoC5/CapSense_CSHL.c ****                         posPrev = diplex[maximum - 1u];
1112:Generated_Source\PSoC5/CapSense_CSHL.c ****                         posNext = diplex[maximum + 1u];
1113:Generated_Source\PSoC5/CapSense_CSHL.c ****                         count <<= 1u;
1114:Generated_Source\PSoC5/CapSense_CSHL.c ****                     }                    
1115:Generated_Source\PSoC5/CapSense_CSHL.c ****                 #elif (CapSense_IS_DIPLEX_SLIDER)
1116:Generated_Source\PSoC5/CapSense_CSHL.c ****                     /* Calculate next and previous near to maximum */
1117:Generated_Source\PSoC5/CapSense_CSHL.c ****                     pos     = diplex[maximum];
1118:Generated_Source\PSoC5/CapSense_CSHL.c ****                     posPrev = diplex[maximum - 1u];
1119:Generated_Source\PSoC5/CapSense_CSHL.c ****                     posNext = diplex[maximum + 1u];
1120:Generated_Source\PSoC5/CapSense_CSHL.c ****                     count <<= 1u;                    
1121:Generated_Source\PSoC5/CapSense_CSHL.c ****                 #else                    
1122:Generated_Source\PSoC5/CapSense_CSHL.c ****                     /* Calculate next and previous near to maximum */
1123:Generated_Source\PSoC5/CapSense_CSHL.c ****                     if (maximum >= 1u)
1124:Generated_Source\PSoC5/CapSense_CSHL.c ****                     {
1125:Generated_Source\PSoC5/CapSense_CSHL.c ****                         posPrev = maximum - 1u;
1126:Generated_Source\PSoC5/CapSense_CSHL.c ****                     }
1127:Generated_Source\PSoC5/CapSense_CSHL.c ****                     posNext = maximum + 1u; 
1128:Generated_Source\PSoC5/CapSense_CSHL.c ****                 #endif /* (CapSense_IS_DIPLEX_SLIDER && CapSense_IS_NON_DIPLEX_SLIDER) */
1129:Generated_Source\PSoC5/CapSense_CSHL.c ****                         
1130:Generated_Source\PSoC5/CapSense_CSHL.c ****                 /* Copy Signal for found centriod */
1131:Generated_Source\PSoC5/CapSense_CSHL.c ****                 #if (CapSense_IS_DIPLEX_SLIDER)
1132:Generated_Source\PSoC5/CapSense_CSHL.c ****                     CapSense_centroid[CapSense_POS] = startOfSlider[pos];
1133:Generated_Source\PSoC5/CapSense_CSHL.c ****                 #else
1134:Generated_Source\PSoC5/CapSense_CSHL.c ****                     CapSense_centroid[CapSense_POS] = startOfSlider[maximum];
1135:Generated_Source\PSoC5/CapSense_CSHL.c ****                 #endif /* (CapSense_IS_DIPLEX_SLIDER) */
1136:Generated_Source\PSoC5/CapSense_CSHL.c ****                     
1137:Generated_Source\PSoC5/CapSense_CSHL.c ****                 /* Check borders for LINEAR Slider */
1138:Generated_Source\PSoC5/CapSense_CSHL.c ****                 if (maximum == 0u)                   /* Start of centroid */
1139:Generated_Source\PSoC5/CapSense_CSHL.c ****                 { 
1140:Generated_Source\PSoC5/CapSense_CSHL.c ****                     CapSense_centroid[CapSense_POS_PREV] = 0u;
1141:Generated_Source\PSoC5/CapSense_CSHL.c ****                     CapSense_centroid[CapSense_POS_NEXT] = startOfSlider[posNext];
1142:Generated_Source\PSoC5/CapSense_CSHL.c ****                 }
1143:Generated_Source\PSoC5/CapSense_CSHL.c ****                 else if (maximum == ((count) - 1u)) /* End of centroid */
1144:Generated_Source\PSoC5/CapSense_CSHL.c ****                 {
1145:Generated_Source\PSoC5/CapSense_CSHL.c ****                     CapSense_centroid[CapSense_POS_PREV] = startOfSlider[posPrev];
1146:Generated_Source\PSoC5/CapSense_CSHL.c ****                     CapSense_centroid[CapSense_POS_NEXT] = 0u;
1147:Generated_Source\PSoC5/CapSense_CSHL.c ****                 }
1148:Generated_Source\PSoC5/CapSense_CSHL.c ****                 else                                /* Not first Not last */
1149:Generated_Source\PSoC5/CapSense_CSHL.c ****                 {
1150:Generated_Source\PSoC5/CapSense_CSHL.c ****                     CapSense_centroid[CapSense_POS_PREV] = startOfSlider[posPrev];
1151:Generated_Source\PSoC5/CapSense_CSHL.c ****                     CapSense_centroid[CapSense_POS_NEXT] = startOfSlider[posNext];
1152:Generated_Source\PSoC5/CapSense_CSHL.c ****                 }
1153:Generated_Source\PSoC5/CapSense_CSHL.c ****             #endif /* ((CapSense_TOTAL_LINEAR_SLIDERS_COUNT>0u)||(CapSense_TOTAL_TOUCH_PADS_COUNT>0
1154:Generated_Source\PSoC5/CapSense_CSHL.c **** 
1155:Generated_Source\PSoC5/CapSense_CSHL.c ****         #if (CapSense_ADD_SLIDER_TYPE)
1156:Generated_Source\PSoC5/CapSense_CSHL.c ****             }
1157:Generated_Source\PSoC5/CapSense_CSHL.c ****         #endif /* (CapSense_ADD_SLIDER_TYPE) */
1158:Generated_Source\PSoC5/CapSense_CSHL.c ****     
1159:Generated_Source\PSoC5/CapSense_CSHL.c ****         /* Subtract noiseThreshold */
1160:Generated_Source\PSoC5/CapSense_CSHL.c ****         if(CapSense_centroid[CapSense_POS_PREV] > noiseThreshold)
1161:Generated_Source\PSoC5/CapSense_CSHL.c ****         {
1162:Generated_Source\PSoC5/CapSense_CSHL.c ****             CapSense_centroid[CapSense_POS_PREV] -= noiseThreshold;
1163:Generated_Source\PSoC5/CapSense_CSHL.c ****         }
ARM GAS  C:\Users\JEFFSN~1\AppData\Local\Temp\ccG3vFpC.s 			page 32


1164:Generated_Source\PSoC5/CapSense_CSHL.c ****         else
1165:Generated_Source\PSoC5/CapSense_CSHL.c ****         {
1166:Generated_Source\PSoC5/CapSense_CSHL.c ****             CapSense_centroid[CapSense_POS_PREV] = 0u;
1167:Generated_Source\PSoC5/CapSense_CSHL.c ****         }
1168:Generated_Source\PSoC5/CapSense_CSHL.c ****         
1169:Generated_Source\PSoC5/CapSense_CSHL.c ****         /* Maximum always grater than fingerThreshold, so grate than noiseThreshold */
1170:Generated_Source\PSoC5/CapSense_CSHL.c ****         CapSense_centroid[CapSense_POS] -= noiseThreshold;
1171:Generated_Source\PSoC5/CapSense_CSHL.c ****         
1172:Generated_Source\PSoC5/CapSense_CSHL.c ****         /* Subtract noiseThreshold */
1173:Generated_Source\PSoC5/CapSense_CSHL.c ****         if(CapSense_centroid[CapSense_POS_NEXT] > noiseThreshold)
1174:Generated_Source\PSoC5/CapSense_CSHL.c ****         {
1175:Generated_Source\PSoC5/CapSense_CSHL.c ****             CapSense_centroid[CapSense_POS_NEXT] -= noiseThreshold;
1176:Generated_Source\PSoC5/CapSense_CSHL.c ****         }
1177:Generated_Source\PSoC5/CapSense_CSHL.c ****         else
1178:Generated_Source\PSoC5/CapSense_CSHL.c ****         {
1179:Generated_Source\PSoC5/CapSense_CSHL.c ****             CapSense_centroid[CapSense_POS_NEXT] = 0u;
1180:Generated_Source\PSoC5/CapSense_CSHL.c ****         }
1181:Generated_Source\PSoC5/CapSense_CSHL.c ****         
1182:Generated_Source\PSoC5/CapSense_CSHL.c ****         
1183:Generated_Source\PSoC5/CapSense_CSHL.c ****         /* Si+1 - Si-1 */
1184:Generated_Source\PSoC5/CapSense_CSHL.c ****         numerator = (uint32) CapSense_centroid[CapSense_POS_NEXT] -
1185:Generated_Source\PSoC5/CapSense_CSHL.c ****                     (uint32) CapSense_centroid[CapSense_POS_PREV];
1186:Generated_Source\PSoC5/CapSense_CSHL.c **** 
1187:Generated_Source\PSoC5/CapSense_CSHL.c ****         /* Si+1 + Si + Si-1 */
1188:Generated_Source\PSoC5/CapSense_CSHL.c ****         denominator = (int32) CapSense_centroid[CapSense_POS_PREV] + 
1189:Generated_Source\PSoC5/CapSense_CSHL.c ****                       (int32) CapSense_centroid[CapSense_POS] + 
1190:Generated_Source\PSoC5/CapSense_CSHL.c ****                       (int32) CapSense_centroid[CapSense_POS_NEXT];
1191:Generated_Source\PSoC5/CapSense_CSHL.c ****         
1192:Generated_Source\PSoC5/CapSense_CSHL.c ****         /* (numerator/denominator) + maximum */
1193:Generated_Source\PSoC5/CapSense_CSHL.c ****         denominator = (((int32)(uint32)((uint32)numerator << 8u)/denominator) + (int32)(uint32)((ui
1194:Generated_Source\PSoC5/CapSense_CSHL.c **** 
1195:Generated_Source\PSoC5/CapSense_CSHL.c ****         #if(CapSense_TOTAL_RADIAL_SLIDERS_COUNT > 0u)
1196:Generated_Source\PSoC5/CapSense_CSHL.c ****             /* Only required for RADIAL Slider */
1197:Generated_Source\PSoC5/CapSense_CSHL.c ****             if(denominator < 0)
1198:Generated_Source\PSoC5/CapSense_CSHL.c ****             {
1199:Generated_Source\PSoC5/CapSense_CSHL.c ****                 denominator += (int32)((uint16)((uint16) count << 8u));
1200:Generated_Source\PSoC5/CapSense_CSHL.c ****             }
1201:Generated_Source\PSoC5/CapSense_CSHL.c ****         #endif /* (CapSense_TOTAL_RADIAL_SLIDERS_COUNT > 0u) */
1202:Generated_Source\PSoC5/CapSense_CSHL.c **** 
1203:Generated_Source\PSoC5/CapSense_CSHL.c ****         denominator *= (int16)resolution;
1204:Generated_Source\PSoC5/CapSense_CSHL.c **** 
1205:Generated_Source\PSoC5/CapSense_CSHL.c ****         /* Round the relust and put it to uint8 */
1206:Generated_Source\PSoC5/CapSense_CSHL.c ****         position = ((uint8) HI16((uint32)denominator + CapSense_CENTROID_ROUND_VALUE));
1207:Generated_Source\PSoC5/CapSense_CSHL.c **** 
1208:Generated_Source\PSoC5/CapSense_CSHL.c ****         return (position);
1209:Generated_Source\PSoC5/CapSense_CSHL.c ****     }    
1210:Generated_Source\PSoC5/CapSense_CSHL.c **** #endif /* (CapSense_TOTAL_CENTROIDS_COUNT) */
1211:Generated_Source\PSoC5/CapSense_CSHL.c **** 
1212:Generated_Source\PSoC5/CapSense_CSHL.c **** 
1213:Generated_Source\PSoC5/CapSense_CSHL.c **** #if(CapSense_TOTAL_LINEAR_SLIDERS_COUNT > 0u)
1214:Generated_Source\PSoC5/CapSense_CSHL.c ****     /*******************************************************************************
1215:Generated_Source\PSoC5/CapSense_CSHL.c ****     * Function Name: CapSense_GetCentroidPos
1216:Generated_Source\PSoC5/CapSense_CSHL.c ****     ********************************************************************************
1217:Generated_Source\PSoC5/CapSense_CSHL.c ****     *
1218:Generated_Source\PSoC5/CapSense_CSHL.c ****     * Summary:
1219:Generated_Source\PSoC5/CapSense_CSHL.c ****     *  Checks the CapSense_Signal[ ] array for a centroid within
1220:Generated_Source\PSoC5/CapSense_CSHL.c ****     *  slider specified range. The centroid position is calculated to the resolution
ARM GAS  C:\Users\JEFFSN~1\AppData\Local\Temp\ccG3vFpC.s 			page 33


1221:Generated_Source\PSoC5/CapSense_CSHL.c ****     *  specified in the CapSense customizer. The position filters are applied to the
1222:Generated_Source\PSoC5/CapSense_CSHL.c ****     *  result if enabled.
1223:Generated_Source\PSoC5/CapSense_CSHL.c ****     *
1224:Generated_Source\PSoC5/CapSense_CSHL.c ****     * Parameters:
1225:Generated_Source\PSoC5/CapSense_CSHL.c ****     *  widget:  Widget number.
1226:Generated_Source\PSoC5/CapSense_CSHL.c ****     *  For every linear slider widget there are defines in this format:
1227:Generated_Source\PSoC5/CapSense_CSHL.c ****     *  #define CapSense_LS__"widget_name"            5
1228:Generated_Source\PSoC5/CapSense_CSHL.c ****     * 
1229:Generated_Source\PSoC5/CapSense_CSHL.c ****     * Return:
1230:Generated_Source\PSoC5/CapSense_CSHL.c ****     *  Returns position value of the linear slider.
1231:Generated_Source\PSoC5/CapSense_CSHL.c ****     *
1232:Generated_Source\PSoC5/CapSense_CSHL.c ****     * Side Effects:
1233:Generated_Source\PSoC5/CapSense_CSHL.c ****     *  If any sensor within the slider widget is active, the function returns values
1234:Generated_Source\PSoC5/CapSense_CSHL.c ****     *  from zero to the API resolution value set in the CapSense customizer. If no
1235:Generated_Source\PSoC5/CapSense_CSHL.c ****     *  sensors are active, the function returns 0xFFFF. If an error occurs during
1236:Generated_Source\PSoC5/CapSense_CSHL.c ****     *  execution of the centroid/diplexing algorithm, the function returns 0xFFFF.
1237:Generated_Source\PSoC5/CapSense_CSHL.c ****     *  There are no checks of widget type argument provided to this function.
1238:Generated_Source\PSoC5/CapSense_CSHL.c ****     *  The unproper widget type provided will cause unexpected position calculations.
1239:Generated_Source\PSoC5/CapSense_CSHL.c ****     *
1240:Generated_Source\PSoC5/CapSense_CSHL.c ****     * Note:
1241:Generated_Source\PSoC5/CapSense_CSHL.c ****     *  If noise counts on the slider segments are greater than the noise
1242:Generated_Source\PSoC5/CapSense_CSHL.c ****     *  threshold, this subroutine may generate a false centroid result. The noise
1243:Generated_Source\PSoC5/CapSense_CSHL.c ****     *  threshold should be set carefully (high enough above the noise level) so
1244:Generated_Source\PSoC5/CapSense_CSHL.c ****     *  that noise will not generate a false centroid.
1245:Generated_Source\PSoC5/CapSense_CSHL.c ****     *
1246:Generated_Source\PSoC5/CapSense_CSHL.c ****     * Reentrant:
1247:Generated_Source\PSoC5/CapSense_CSHL.c ****     *  No.
1248:Generated_Source\PSoC5/CapSense_CSHL.c ****     *
1249:Generated_Source\PSoC5/CapSense_CSHL.c ****     *******************************************************************************/
1250:Generated_Source\PSoC5/CapSense_CSHL.c ****     uint16 CapSense_GetCentroidPos(uint8 widget) 
1251:Generated_Source\PSoC5/CapSense_CSHL.c ****     {
1252:Generated_Source\PSoC5/CapSense_CSHL.c ****         #if (CapSense_IS_DIPLEX_SLIDER)
1253:Generated_Source\PSoC5/CapSense_CSHL.c ****             const uint8 CYCODE *diplex;
1254:Generated_Source\PSoC5/CapSense_CSHL.c ****         #endif /* (CapSense_IS_DIPLEX_SLIDER) */
1255:Generated_Source\PSoC5/CapSense_CSHL.c ****                 
1256:Generated_Source\PSoC5/CapSense_CSHL.c ****         #if (0u != CapSense_LINEAR_SLIDERS_POS_FILTERS_MASK)
1257:Generated_Source\PSoC5/CapSense_CSHL.c ****             uint8 posIndex;
1258:Generated_Source\PSoC5/CapSense_CSHL.c ****             uint8 firstTimeIndex = CapSense_posFiltersData[widget];
1259:Generated_Source\PSoC5/CapSense_CSHL.c ****             uint8 posFiltersMask = CapSense_posFiltersMask[widget];  
1260:Generated_Source\PSoC5/CapSense_CSHL.c ****         #endif /* (0u != CapSense_LINEAR_SLIDERS_POS_FILTERS_MASK) */
1261:Generated_Source\PSoC5/CapSense_CSHL.c **** 
1262:Generated_Source\PSoC5/CapSense_CSHL.c ****         #if ((0u != (CapSense_MEDIAN_FILTER & CapSense_LINEAR_SLIDERS_POS_FILTERS_MASK)) || \
1263:Generated_Source\PSoC5/CapSense_CSHL.c ****              (0u != (CapSense_AVERAGING_FILTER & CapSense_LINEAR_SLIDERS_POS_FILTERS_MASK)))
1264:Generated_Source\PSoC5/CapSense_CSHL.c ****             uint8 tempPos;
1265:Generated_Source\PSoC5/CapSense_CSHL.c ****         #endif /* ((0u != (CapSense_MEDIAN_FILTER & CapSense_LINEAR_SLIDERS_POS_FILTERS_MASK)) || \
1266:Generated_Source\PSoC5/CapSense_CSHL.c ****                *   (0u != (CapSense_AVERAGING_FILTER & CapSense_LINEAR_SLIDERS_POS_FILTERS_MASK)))
1267:Generated_Source\PSoC5/CapSense_CSHL.c ****                */
1268:Generated_Source\PSoC5/CapSense_CSHL.c **** 
1269:Generated_Source\PSoC5/CapSense_CSHL.c ****         uint8 maximum;
1270:Generated_Source\PSoC5/CapSense_CSHL.c ****         uint16 position;
1271:Generated_Source\PSoC5/CapSense_CSHL.c ****         uint8 offset = CapSense_rawDataIndex[widget];
1272:Generated_Source\PSoC5/CapSense_CSHL.c ****         uint8 count = CapSense_numberOfSensors[widget];
1273:Generated_Source\PSoC5/CapSense_CSHL.c ****                         
1274:Generated_Source\PSoC5/CapSense_CSHL.c ****         #if (CapSense_IS_DIPLEX_SLIDER)
1275:Generated_Source\PSoC5/CapSense_CSHL.c ****             if(widget < CapSense_TOTAL_DIPLEXED_SLIDERS_COUNT)
1276:Generated_Source\PSoC5/CapSense_CSHL.c ****             {
1277:Generated_Source\PSoC5/CapSense_CSHL.c ****                 maximum = CapSense_diplexTable[widget];
ARM GAS  C:\Users\JEFFSN~1\AppData\Local\Temp\ccG3vFpC.s 			page 34


1278:Generated_Source\PSoC5/CapSense_CSHL.c ****                 diplex = &CapSense_diplexTable[maximum];
1279:Generated_Source\PSoC5/CapSense_CSHL.c ****             }
1280:Generated_Source\PSoC5/CapSense_CSHL.c ****             else
1281:Generated_Source\PSoC5/CapSense_CSHL.c ****             {
1282:Generated_Source\PSoC5/CapSense_CSHL.c ****                 diplex = 0u;
1283:Generated_Source\PSoC5/CapSense_CSHL.c ****             }
1284:Generated_Source\PSoC5/CapSense_CSHL.c ****         #endif /* (CapSense_IS_DIPLEX_SLIDER) */
1285:Generated_Source\PSoC5/CapSense_CSHL.c **** 
1286:Generated_Source\PSoC5/CapSense_CSHL.c ****         /* Find Maximum within centroid */      
1287:Generated_Source\PSoC5/CapSense_CSHL.c ****         #if (CapSense_IS_DIPLEX_SLIDER)        
1288:Generated_Source\PSoC5/CapSense_CSHL.c ****             maximum = CapSense_FindMaximum(offset, count, CapSense_fingerThreshold[widget], diplex)
1289:Generated_Source\PSoC5/CapSense_CSHL.c ****         #else
1290:Generated_Source\PSoC5/CapSense_CSHL.c ****             maximum = CapSense_FindMaximum(offset, count, CapSense_fingerThreshold[widget]);
1291:Generated_Source\PSoC5/CapSense_CSHL.c ****         #endif /* (CapSense_IS_DIPLEX_SLIDER) */
1292:Generated_Source\PSoC5/CapSense_CSHL.c **** 
1293:Generated_Source\PSoC5/CapSense_CSHL.c ****         if (maximum != 0xFFu)
1294:Generated_Source\PSoC5/CapSense_CSHL.c ****         {
1295:Generated_Source\PSoC5/CapSense_CSHL.c ****             /* Calculate centroid */
1296:Generated_Source\PSoC5/CapSense_CSHL.c ****             position = (uint16) CapSense_CalcCentroid(maximum, 
1297:Generated_Source\PSoC5/CapSense_CSHL.c ****                          offset, count, CapSense_centroidMult[widget], CapSense_noiseThreshold[widg
1298:Generated_Source\PSoC5/CapSense_CSHL.c **** 
1299:Generated_Source\PSoC5/CapSense_CSHL.c ****             #if (0u != CapSense_LINEAR_SLIDERS_POS_FILTERS_MASK)
1300:Generated_Source\PSoC5/CapSense_CSHL.c ****                 /* Check if this linear slider has enabled filters */
1301:Generated_Source\PSoC5/CapSense_CSHL.c ****                 if (0u != (posFiltersMask & CapSense_ANY_POS_FILTER))
1302:Generated_Source\PSoC5/CapSense_CSHL.c ****                 {
1303:Generated_Source\PSoC5/CapSense_CSHL.c ****                     /* Caluclate position to store filters data */
1304:Generated_Source\PSoC5/CapSense_CSHL.c ****                     posIndex  = firstTimeIndex + 1u;
1305:Generated_Source\PSoC5/CapSense_CSHL.c ****                     
1306:Generated_Source\PSoC5/CapSense_CSHL.c ****                     if (0u == CapSense_posFiltersData[firstTimeIndex])
1307:Generated_Source\PSoC5/CapSense_CSHL.c ****                     {
1308:Generated_Source\PSoC5/CapSense_CSHL.c ****                         /* Init filters */
1309:Generated_Source\PSoC5/CapSense_CSHL.c ****                         CapSense_posFiltersData[posIndex] = (uint8) position;
1310:Generated_Source\PSoC5/CapSense_CSHL.c ****                         #if ((0u != (CapSense_MEDIAN_FILTER & \
1311:Generated_Source\PSoC5/CapSense_CSHL.c ****                                      CapSense_LINEAR_SLIDERS_POS_FILTERS_MASK)) || \
1312:Generated_Source\PSoC5/CapSense_CSHL.c ****                              (0u != (CapSense_AVERAGING_FILTER & \
1313:Generated_Source\PSoC5/CapSense_CSHL.c ****                                      CapSense_LINEAR_SLIDERS_POS_FILTERS_MASK)))
1314:Generated_Source\PSoC5/CapSense_CSHL.c **** 
1315:Generated_Source\PSoC5/CapSense_CSHL.c ****                             if ( (0u != (posFiltersMask & CapSense_MEDIAN_FILTER)) || 
1316:Generated_Source\PSoC5/CapSense_CSHL.c ****                                  (0u != (posFiltersMask & CapSense_AVERAGING_FILTER)) )
1317:Generated_Source\PSoC5/CapSense_CSHL.c ****                             {
1318:Generated_Source\PSoC5/CapSense_CSHL.c ****                                 CapSense_posFiltersData[posIndex + 1u] = (uint8) position;
1319:Generated_Source\PSoC5/CapSense_CSHL.c ****                             }
1320:Generated_Source\PSoC5/CapSense_CSHL.c ****                         #endif /* ((0u != (CapSense_MEDIAN_FILTER & \
1321:Generated_Source\PSoC5/CapSense_CSHL.c ****                                *           CapSense_LINEAR_SLIDERS_POS_FILTERS_MASK)) || \
1322:Generated_Source\PSoC5/CapSense_CSHL.c ****                                *   (0u != (CapSense_AVERAGING_FILTER & \
1323:Generated_Source\PSoC5/CapSense_CSHL.c ****                                *           CapSense_LINEAR_SLIDERS_POS_FILTERS_MASK)))
1324:Generated_Source\PSoC5/CapSense_CSHL.c ****                                */
1325:Generated_Source\PSoC5/CapSense_CSHL.c ****                         
1326:Generated_Source\PSoC5/CapSense_CSHL.c ****                         CapSense_posFiltersData[firstTimeIndex] = 1u;
1327:Generated_Source\PSoC5/CapSense_CSHL.c ****                     }
1328:Generated_Source\PSoC5/CapSense_CSHL.c ****                     else
1329:Generated_Source\PSoC5/CapSense_CSHL.c ****                     {
1330:Generated_Source\PSoC5/CapSense_CSHL.c ****                         /* Do filtering */
1331:Generated_Source\PSoC5/CapSense_CSHL.c ****                         #if (0u != (CapSense_MEDIAN_FILTER & CapSense_LINEAR_SLIDERS_POS_FILTERS_MA
1332:Generated_Source\PSoC5/CapSense_CSHL.c ****                             if (0u != (posFiltersMask & CapSense_MEDIAN_FILTER))
1333:Generated_Source\PSoC5/CapSense_CSHL.c ****                             {
1334:Generated_Source\PSoC5/CapSense_CSHL.c ****                                 tempPos = (uint8) position;
ARM GAS  C:\Users\JEFFSN~1\AppData\Local\Temp\ccG3vFpC.s 			page 35


1335:Generated_Source\PSoC5/CapSense_CSHL.c ****                                 position = CapSense_MedianFilter(position,
1336:Generated_Source\PSoC5/CapSense_CSHL.c ****                                                                 (uint16)CapSense_posFiltersData[pos
1337:Generated_Source\PSoC5/CapSense_CSHL.c ****                                                                 (uint16)CapSense_posFiltersData[pos
1338:Generated_Source\PSoC5/CapSense_CSHL.c ****                                 CapSense_posFiltersData[posIndex + 1u] =
1339:Generated_Source\PSoC5/CapSense_CSHL.c ****                                                                              CapSense_posFiltersDat
1340:Generated_Source\PSoC5/CapSense_CSHL.c ****                                 CapSense_posFiltersData[posIndex] = tempPos;
1341:Generated_Source\PSoC5/CapSense_CSHL.c ****                             }
1342:Generated_Source\PSoC5/CapSense_CSHL.c ****                         #endif /*(0u != (CapSense_MEDIAN_FILTER &
1343:Generated_Source\PSoC5/CapSense_CSHL.c ****                                *         CapSense_LINEAR_SLIDERS_POS_FILTERS_MASK))
1344:Generated_Source\PSoC5/CapSense_CSHL.c ****                                */
1345:Generated_Source\PSoC5/CapSense_CSHL.c **** 
1346:Generated_Source\PSoC5/CapSense_CSHL.c ****                         #if(0u!=(CapSense_AVERAGING_FILTER & CapSense_LINEAR_SLIDERS_POS_FILTERS_MA
1347:Generated_Source\PSoC5/CapSense_CSHL.c ****                             if (0u != (posFiltersMask & CapSense_AVERAGING_FILTER)) 
1348:Generated_Source\PSoC5/CapSense_CSHL.c ****                             {
1349:Generated_Source\PSoC5/CapSense_CSHL.c ****                                 tempPos = (uint8) position;
1350:Generated_Source\PSoC5/CapSense_CSHL.c ****                                 position = CapSense_AveragingFilter(position,
1351:Generated_Source\PSoC5/CapSense_CSHL.c ****                                                                 (uint16)CapSense_posFiltersData[pos
1352:Generated_Source\PSoC5/CapSense_CSHL.c ****                                                                 (uint16)CapSense_posFiltersData[pos
1353:Generated_Source\PSoC5/CapSense_CSHL.c ****                                 CapSense_posFiltersData[posIndex+1u]=CapSense_posFiltersData[posInd
1354:Generated_Source\PSoC5/CapSense_CSHL.c ****                                 CapSense_posFiltersData[posIndex] = tempPos;
1355:Generated_Source\PSoC5/CapSense_CSHL.c ****                             }
1356:Generated_Source\PSoC5/CapSense_CSHL.c ****                         #endif /* (0u != (CapSense_AVERAGING_FILTER & \
1357:Generated_Source\PSoC5/CapSense_CSHL.c ****                                *           CapSense_LINEAR_SLIDERS_POS_FILTERS_MASK))
1358:Generated_Source\PSoC5/CapSense_CSHL.c ****                                */
1359:Generated_Source\PSoC5/CapSense_CSHL.c **** 
1360:Generated_Source\PSoC5/CapSense_CSHL.c ****                         #if (0u != (CapSense_IIR2_FILTER & CapSense_LINEAR_SLIDERS_POS_FILTERS_MASK
1361:Generated_Source\PSoC5/CapSense_CSHL.c ****                             if (0u != (posFiltersMask & CapSense_IIR2_FILTER)) 
1362:Generated_Source\PSoC5/CapSense_CSHL.c ****                             {
1363:Generated_Source\PSoC5/CapSense_CSHL.c ****                                 position = CapSense_IIR2Filter(position,
1364:Generated_Source\PSoC5/CapSense_CSHL.c ****                                                                     (uint16)CapSense_posFiltersData
1365:Generated_Source\PSoC5/CapSense_CSHL.c ****                                 CapSense_posFiltersData[posIndex] = (uint8) position;
1366:Generated_Source\PSoC5/CapSense_CSHL.c ****                             }
1367:Generated_Source\PSoC5/CapSense_CSHL.c ****                         #endif /* (0u != (CapSense_IIR2_FILTER & \
1368:Generated_Source\PSoC5/CapSense_CSHL.c ****                                *          CapSense_LINEAR_SLIDERS_POS_FILTERS_MASK))
1369:Generated_Source\PSoC5/CapSense_CSHL.c ****                                */
1370:Generated_Source\PSoC5/CapSense_CSHL.c **** 
1371:Generated_Source\PSoC5/CapSense_CSHL.c ****                         #if (0u != (CapSense_IIR4_FILTER & CapSense_LINEAR_SLIDERS_POS_FILTERS_MASK
1372:Generated_Source\PSoC5/CapSense_CSHL.c ****                             if (0u != (posFiltersMask & CapSense_IIR4_FILTER))
1373:Generated_Source\PSoC5/CapSense_CSHL.c ****                             {
1374:Generated_Source\PSoC5/CapSense_CSHL.c ****                                 position = CapSense_IIR4Filter(position,
1375:Generated_Source\PSoC5/CapSense_CSHL.c ****                                                                     (uint16)CapSense_posFiltersData
1376:Generated_Source\PSoC5/CapSense_CSHL.c ****                                 CapSense_posFiltersData[posIndex] = (uint8) position;
1377:Generated_Source\PSoC5/CapSense_CSHL.c ****                             }                                
1378:Generated_Source\PSoC5/CapSense_CSHL.c ****                         #endif /* (0u != (CapSense_IIR4_FILTER & \
1379:Generated_Source\PSoC5/CapSense_CSHL.c ****                                *          CapSense_LINEAR_SLIDERS_POS_FILTERS_MASK))
1380:Generated_Source\PSoC5/CapSense_CSHL.c ****                                */
1381:Generated_Source\PSoC5/CapSense_CSHL.c **** 
1382:Generated_Source\PSoC5/CapSense_CSHL.c ****                         #if (0u != (CapSense_JITTER_FILTER & CapSense_LINEAR_SLIDERS_POS_FILTERS_MA
1383:Generated_Source\PSoC5/CapSense_CSHL.c ****                             if (0u != (posFiltersMask & CapSense_JITTER_FILTER))
1384:Generated_Source\PSoC5/CapSense_CSHL.c ****                             {
1385:Generated_Source\PSoC5/CapSense_CSHL.c ****                                 position = CapSense_JitterFilter(position,
1386:Generated_Source\PSoC5/CapSense_CSHL.c ****                                                                     (uint16)CapSense_posFiltersData
1387:Generated_Source\PSoC5/CapSense_CSHL.c ****                                 CapSense_posFiltersData[posIndex] = (uint8) position;
1388:Generated_Source\PSoC5/CapSense_CSHL.c ****                             }
1389:Generated_Source\PSoC5/CapSense_CSHL.c ****                         #endif /* (0u != (CapSense_JITTER_FILTER & \
1390:Generated_Source\PSoC5/CapSense_CSHL.c ****                                *           CapSense_LINEAR_SLIDERS_POS_FILTERS_MASK))
1391:Generated_Source\PSoC5/CapSense_CSHL.c ****                                */
ARM GAS  C:\Users\JEFFSN~1\AppData\Local\Temp\ccG3vFpC.s 			page 36


1392:Generated_Source\PSoC5/CapSense_CSHL.c ****                     }
1393:Generated_Source\PSoC5/CapSense_CSHL.c ****                 }
1394:Generated_Source\PSoC5/CapSense_CSHL.c ****             #endif /* (0u != CapSense_LINEAR_SLIDERS_POS_FILTERS_MASK) */
1395:Generated_Source\PSoC5/CapSense_CSHL.c **** 
1396:Generated_Source\PSoC5/CapSense_CSHL.c ****         }
1397:Generated_Source\PSoC5/CapSense_CSHL.c ****         else
1398:Generated_Source\PSoC5/CapSense_CSHL.c ****         {
1399:Generated_Source\PSoC5/CapSense_CSHL.c ****             /* The maximum wasn't found */
1400:Generated_Source\PSoC5/CapSense_CSHL.c ****             position = 0xFFFFu;
1401:Generated_Source\PSoC5/CapSense_CSHL.c **** 
1402:Generated_Source\PSoC5/CapSense_CSHL.c ****             #if(0u != CapSense_LINEAR_SLIDERS_POS_FILTERS_MASK)
1403:Generated_Source\PSoC5/CapSense_CSHL.c ****                 /* Reset the filters */
1404:Generated_Source\PSoC5/CapSense_CSHL.c ****                 if(0u != (posFiltersMask & CapSense_ANY_POS_FILTER))
1405:Generated_Source\PSoC5/CapSense_CSHL.c ****                 {
1406:Generated_Source\PSoC5/CapSense_CSHL.c ****                     CapSense_posFiltersData[firstTimeIndex] = 0u;
1407:Generated_Source\PSoC5/CapSense_CSHL.c ****                 }
1408:Generated_Source\PSoC5/CapSense_CSHL.c ****             #endif /* (0u != CapSense_LINEAR_SLIDERS_POS_FILTERS_MASK) */
1409:Generated_Source\PSoC5/CapSense_CSHL.c ****         }
1410:Generated_Source\PSoC5/CapSense_CSHL.c **** 
1411:Generated_Source\PSoC5/CapSense_CSHL.c ****         
1412:Generated_Source\PSoC5/CapSense_CSHL.c ****         return (position);
1413:Generated_Source\PSoC5/CapSense_CSHL.c ****     }
1414:Generated_Source\PSoC5/CapSense_CSHL.c **** #endif /* (CapSense_TOTAL_LINEAR_SLIDERS_COUNT > 0u) */
1415:Generated_Source\PSoC5/CapSense_CSHL.c **** 
1416:Generated_Source\PSoC5/CapSense_CSHL.c **** 
1417:Generated_Source\PSoC5/CapSense_CSHL.c **** #if(CapSense_TOTAL_RADIAL_SLIDERS_COUNT > 0u)
1418:Generated_Source\PSoC5/CapSense_CSHL.c ****     /*******************************************************************************
1419:Generated_Source\PSoC5/CapSense_CSHL.c ****     * Function Name: CapSense_GetRadialCentroidPos
1420:Generated_Source\PSoC5/CapSense_CSHL.c ****     ********************************************************************************
1421:Generated_Source\PSoC5/CapSense_CSHL.c ****     *
1422:Generated_Source\PSoC5/CapSense_CSHL.c ****     * Summary:
1423:Generated_Source\PSoC5/CapSense_CSHL.c ****     *  Checks the CapSense_Signal[ ] array for a centroid within
1424:Generated_Source\PSoC5/CapSense_CSHL.c ****     *  slider specified range. The centroid position is calculated to the resolution
1425:Generated_Source\PSoC5/CapSense_CSHL.c ****     *  specified in the CapSense customizer. The position filters are applied to the
1426:Generated_Source\PSoC5/CapSense_CSHL.c ****     *  result if enabled.
1427:Generated_Source\PSoC5/CapSense_CSHL.c ****     *
1428:Generated_Source\PSoC5/CapSense_CSHL.c ****     * Parameters:
1429:Generated_Source\PSoC5/CapSense_CSHL.c ****     *  widget:  Widget number.
1430:Generated_Source\PSoC5/CapSense_CSHL.c ****     *  For every radial slider widget there are defines in this format:
1431:Generated_Source\PSoC5/CapSense_CSHL.c ****     *  #define CapSense_RS_"widget_name"            5
1432:Generated_Source\PSoC5/CapSense_CSHL.c ****     * 
1433:Generated_Source\PSoC5/CapSense_CSHL.c ****     * Return:
1434:Generated_Source\PSoC5/CapSense_CSHL.c ****     *  Returns position value of the radial slider.
1435:Generated_Source\PSoC5/CapSense_CSHL.c ****     *
1436:Generated_Source\PSoC5/CapSense_CSHL.c ****     * Side Effects:
1437:Generated_Source\PSoC5/CapSense_CSHL.c ****     *  If any sensor within the slider widget is active, the function returns values
1438:Generated_Source\PSoC5/CapSense_CSHL.c ****     *  from zero to the API resolution value set in the CapSense customizer. If no
1439:Generated_Source\PSoC5/CapSense_CSHL.c ****     *  sensors are active, the function returns 0xFFFF.
1440:Generated_Source\PSoC5/CapSense_CSHL.c ****     *  There are no checks of widget type argument provided to this function.
1441:Generated_Source\PSoC5/CapSense_CSHL.c ****     *  The unproper widget type provided will cause unexpected position calculations.
1442:Generated_Source\PSoC5/CapSense_CSHL.c ****     *
1443:Generated_Source\PSoC5/CapSense_CSHL.c ****     * Note:
1444:Generated_Source\PSoC5/CapSense_CSHL.c ****     *  If noise counts on the slider segments are greater than the noise
1445:Generated_Source\PSoC5/CapSense_CSHL.c ****     *  threshold, this subroutine may generate a false centroid result. The noise
1446:Generated_Source\PSoC5/CapSense_CSHL.c ****     *  threshold should be set carefully (high enough above the noise level) so 
1447:Generated_Source\PSoC5/CapSense_CSHL.c ****     *  that noise will not generate a false centroid.
1448:Generated_Source\PSoC5/CapSense_CSHL.c ****     *
ARM GAS  C:\Users\JEFFSN~1\AppData\Local\Temp\ccG3vFpC.s 			page 37


1449:Generated_Source\PSoC5/CapSense_CSHL.c ****     *
1450:Generated_Source\PSoC5/CapSense_CSHL.c ****     * Reentrant:
1451:Generated_Source\PSoC5/CapSense_CSHL.c ****     *  No.
1452:Generated_Source\PSoC5/CapSense_CSHL.c ****     *
1453:Generated_Source\PSoC5/CapSense_CSHL.c ****     *******************************************************************************/
1454:Generated_Source\PSoC5/CapSense_CSHL.c ****      uint16 CapSense_GetRadialCentroidPos(uint8 widget)
1455:Generated_Source\PSoC5/CapSense_CSHL.c **** 	                                       
1456:Generated_Source\PSoC5/CapSense_CSHL.c ****     {
1457:Generated_Source\PSoC5/CapSense_CSHL.c ****         #if (0u != CapSense_RADIAL_SLIDERS_POS_FILTERS_MASK)
1458:Generated_Source\PSoC5/CapSense_CSHL.c ****             uint8 posIndex;
1459:Generated_Source\PSoC5/CapSense_CSHL.c ****             uint8 firstTimeIndex = CapSense_posFiltersData[widget];
1460:Generated_Source\PSoC5/CapSense_CSHL.c ****             uint8 posFiltersMask = CapSense_posFiltersMask[widget]; 
1461:Generated_Source\PSoC5/CapSense_CSHL.c ****         #endif /* (0u != CapSense_RADIAL_SLIDERS_POS_FILTERS_MASK) */
1462:Generated_Source\PSoC5/CapSense_CSHL.c **** 
1463:Generated_Source\PSoC5/CapSense_CSHL.c ****         #if ((0u != (CapSense_MEDIAN_FILTER & CapSense_RADIAL_SLIDERS_POS_FILTERS_MASK)) || \
1464:Generated_Source\PSoC5/CapSense_CSHL.c ****              (0u != (CapSense_AVERAGING_FILTER & CapSense_RADIAL_SLIDERS_POS_FILTERS_MASK)))
1465:Generated_Source\PSoC5/CapSense_CSHL.c ****             uint8 tempPos;
1466:Generated_Source\PSoC5/CapSense_CSHL.c ****         #endif /* ((0u != (CapSense_MEDIAN_FILTER & CapSense_RADIAL_SLIDERS_POS_FILTERS_MASK)) || \
1467:Generated_Source\PSoC5/CapSense_CSHL.c ****                *   (0u != (CapSense_AVERAGING_FILTER & CapSense_RADIAL_SLIDERS_POS_FILTERS_MASK)))
1468:Generated_Source\PSoC5/CapSense_CSHL.c ****                */
1469:Generated_Source\PSoC5/CapSense_CSHL.c **** 
1470:Generated_Source\PSoC5/CapSense_CSHL.c ****         uint8 maximum;
1471:Generated_Source\PSoC5/CapSense_CSHL.c ****         uint16 position;
1472:Generated_Source\PSoC5/CapSense_CSHL.c ****         uint8 offset = CapSense_rawDataIndex[widget];
1473:Generated_Source\PSoC5/CapSense_CSHL.c ****         uint8 count = CapSense_numberOfSensors[widget];
1474:Generated_Source\PSoC5/CapSense_CSHL.c ****         
1475:Generated_Source\PSoC5/CapSense_CSHL.c ****         /* Find Maximum within centroid */        
1476:Generated_Source\PSoC5/CapSense_CSHL.c ****         #if (CapSense_IS_DIPLEX_SLIDER)
1477:Generated_Source\PSoC5/CapSense_CSHL.c ****             maximum = CapSense_FindMaximum(offset, count, CapSense_fingerThreshold[widget], 0u);
1478:Generated_Source\PSoC5/CapSense_CSHL.c ****         #else
1479:Generated_Source\PSoC5/CapSense_CSHL.c ****             maximum = CapSense_FindMaximum(offset, count, CapSense_fingerThreshold[widget]);
1480:Generated_Source\PSoC5/CapSense_CSHL.c ****         #endif /* (CapSense_IS_DIPLEX_SLIDER) */
1481:Generated_Source\PSoC5/CapSense_CSHL.c ****         
1482:Generated_Source\PSoC5/CapSense_CSHL.c ****         if (maximum != 0xFFu)
1483:Generated_Source\PSoC5/CapSense_CSHL.c ****         {
1484:Generated_Source\PSoC5/CapSense_CSHL.c ****             /* Calculate centroid */
1485:Generated_Source\PSoC5/CapSense_CSHL.c ****             position = (uint16) CapSense_CalcCentroid(maximum, 
1486:Generated_Source\PSoC5/CapSense_CSHL.c ****                          offset, count, CapSense_centroidMult[widget], CapSense_noiseThreshold[widg
1487:Generated_Source\PSoC5/CapSense_CSHL.c **** 
1488:Generated_Source\PSoC5/CapSense_CSHL.c ****             #if (0u != CapSense_RADIAL_SLIDERS_POS_FILTERS_MASK)
1489:Generated_Source\PSoC5/CapSense_CSHL.c ****                 /* Check if this Radial slider has enabled filters */
1490:Generated_Source\PSoC5/CapSense_CSHL.c ****                 if (0u != (posFiltersMask & CapSense_ANY_POS_FILTER))
1491:Generated_Source\PSoC5/CapSense_CSHL.c ****                 {
1492:Generated_Source\PSoC5/CapSense_CSHL.c ****                     /* Caluclate position to store filters data */
1493:Generated_Source\PSoC5/CapSense_CSHL.c ****                     posIndex  = firstTimeIndex + 1u;
1494:Generated_Source\PSoC5/CapSense_CSHL.c ****                     
1495:Generated_Source\PSoC5/CapSense_CSHL.c ****                     if (0u == CapSense_posFiltersData[firstTimeIndex])
1496:Generated_Source\PSoC5/CapSense_CSHL.c ****                     {
1497:Generated_Source\PSoC5/CapSense_CSHL.c ****                         /* Init filters */
1498:Generated_Source\PSoC5/CapSense_CSHL.c ****                         CapSense_posFiltersData[posIndex] = (uint8) position;
1499:Generated_Source\PSoC5/CapSense_CSHL.c ****                         #if ((0u != (CapSense_MEDIAN_FILTER & \
1500:Generated_Source\PSoC5/CapSense_CSHL.c ****                                      CapSense_RADIAL_SLIDERS_POS_FILTERS_MASK)) || \
1501:Generated_Source\PSoC5/CapSense_CSHL.c ****                              (0u != (CapSense_AVERAGING_FILTER & \
1502:Generated_Source\PSoC5/CapSense_CSHL.c ****                                      CapSense_RADIAL_SLIDERS_POS_FILTERS_MASK)))
1503:Generated_Source\PSoC5/CapSense_CSHL.c **** 
1504:Generated_Source\PSoC5/CapSense_CSHL.c ****                             if ( (0u != (posFiltersMask & CapSense_MEDIAN_FILTER))  || 
1505:Generated_Source\PSoC5/CapSense_CSHL.c ****                                  (0u != (posFiltersMask & CapSense_AVERAGING_FILTER)) )
ARM GAS  C:\Users\JEFFSN~1\AppData\Local\Temp\ccG3vFpC.s 			page 38


1506:Generated_Source\PSoC5/CapSense_CSHL.c ****                             {
1507:Generated_Source\PSoC5/CapSense_CSHL.c ****                                 CapSense_posFiltersData[posIndex + 1u] = (uint8) position;
1508:Generated_Source\PSoC5/CapSense_CSHL.c ****                             }
1509:Generated_Source\PSoC5/CapSense_CSHL.c ****                         #endif /* ((0u != (CapSense_MEDIAN_FILTER & \
1510:Generated_Source\PSoC5/CapSense_CSHL.c ****                                *           CapSense_RADIAL_SLIDERS_POS_FILTERS_MASK)) || \
1511:Generated_Source\PSoC5/CapSense_CSHL.c ****                                *   (0u != (CapSense_AVERAGING_FILTER & \
1512:Generated_Source\PSoC5/CapSense_CSHL.c ****                                *           CapSense_RADIAL_SLIDERS_POS_FILTERS_MASK)))
1513:Generated_Source\PSoC5/CapSense_CSHL.c ****                                */
1514:Generated_Source\PSoC5/CapSense_CSHL.c ****                         
1515:Generated_Source\PSoC5/CapSense_CSHL.c ****                         CapSense_posFiltersData[firstTimeIndex] = 1u;
1516:Generated_Source\PSoC5/CapSense_CSHL.c ****                     }
1517:Generated_Source\PSoC5/CapSense_CSHL.c ****                     else
1518:Generated_Source\PSoC5/CapSense_CSHL.c ****                     {
1519:Generated_Source\PSoC5/CapSense_CSHL.c ****                         /* Do filtering */
1520:Generated_Source\PSoC5/CapSense_CSHL.c ****                         #if (0u != (CapSense_MEDIAN_FILTER & CapSense_RADIAL_SLIDERS_POS_FILTERS_MA
1521:Generated_Source\PSoC5/CapSense_CSHL.c ****                             if (0u != (posFiltersMask & CapSense_MEDIAN_FILTER))
1522:Generated_Source\PSoC5/CapSense_CSHL.c ****                             {
1523:Generated_Source\PSoC5/CapSense_CSHL.c ****                                 tempPos = (uint8) position;
1524:Generated_Source\PSoC5/CapSense_CSHL.c ****                                 position = CapSense_MedianFilter(position,
1525:Generated_Source\PSoC5/CapSense_CSHL.c ****                                                                         CapSense_posFiltersData[pos
1526:Generated_Source\PSoC5/CapSense_CSHL.c ****                                                                         CapSense_posFiltersData[pos
1527:Generated_Source\PSoC5/CapSense_CSHL.c ****                                 CapSense_posFiltersData[posIndex + 1u] = 
1528:Generated_Source\PSoC5/CapSense_CSHL.c ****                                                                               CapSense_posFiltersDa
1529:Generated_Source\PSoC5/CapSense_CSHL.c ****                                 CapSense_posFiltersData[posIndex] = tempPos;
1530:Generated_Source\PSoC5/CapSense_CSHL.c ****                             }
1531:Generated_Source\PSoC5/CapSense_CSHL.c ****                         #endif /* (0u != (CapSense_MEDIAN_FILTER & 
1532:Generated_Source\PSoC5/CapSense_CSHL.c ****                                *          CapSense_RADIAL_SLIDERS_POS_FILTERS_MASK))
1533:Generated_Source\PSoC5/CapSense_CSHL.c ****                                */
1534:Generated_Source\PSoC5/CapSense_CSHL.c **** 
1535:Generated_Source\PSoC5/CapSense_CSHL.c ****                         #if (0u != (CapSense_AVERAGING_FILTER & \
1536:Generated_Source\PSoC5/CapSense_CSHL.c ****                                     CapSense_RADIAL_SLIDERS_POS_FILTERS_MASK))
1537:Generated_Source\PSoC5/CapSense_CSHL.c ****                             if (0u != (posFiltersMask & CapSense_AVERAGING_FILTER))
1538:Generated_Source\PSoC5/CapSense_CSHL.c ****                             {
1539:Generated_Source\PSoC5/CapSense_CSHL.c ****                                 tempPos = (uint8) position;
1540:Generated_Source\PSoC5/CapSense_CSHL.c ****                                 position = CapSense_AveragingFilter(position, 
1541:Generated_Source\PSoC5/CapSense_CSHL.c ****                                                                        CapSense_posFiltersData[posI
1542:Generated_Source\PSoC5/CapSense_CSHL.c ****                                                                        CapSense_posFiltersData[posI
1543:Generated_Source\PSoC5/CapSense_CSHL.c ****                                 CapSense_posFiltersData[posIndex+1u]= CapSense_posFiltersData[posIn
1544:Generated_Source\PSoC5/CapSense_CSHL.c ****                                 CapSense_posFiltersData[posIndex] = tempPos;
1545:Generated_Source\PSoC5/CapSense_CSHL.c ****                             }
1546:Generated_Source\PSoC5/CapSense_CSHL.c ****                         #endif /* (0u != (CapSense_AVERAGING_FILTER & \
1547:Generated_Source\PSoC5/CapSense_CSHL.c ****                                *          CapSense_RADIAL_SLIDERS_POS_FILTERS_MASK))
1548:Generated_Source\PSoC5/CapSense_CSHL.c ****                                */
1549:Generated_Source\PSoC5/CapSense_CSHL.c **** 
1550:Generated_Source\PSoC5/CapSense_CSHL.c ****                         #if (0u != (CapSense_IIR2_FILTER & CapSense_RADIAL_SLIDERS_POS_FILTERS_MASK
1551:Generated_Source\PSoC5/CapSense_CSHL.c ****                             if (0u != (posFiltersMask & CapSense_IIR2_FILTER))
1552:Generated_Source\PSoC5/CapSense_CSHL.c ****                             {
1553:Generated_Source\PSoC5/CapSense_CSHL.c ****                                 position = CapSense_IIR2Filter(position,
1554:Generated_Source\PSoC5/CapSense_CSHL.c ****                                                                     (uint16)CapSense_posFiltersData
1555:Generated_Source\PSoC5/CapSense_CSHL.c ****                                 CapSense_posFiltersData[posIndex] = (uint8) position;
1556:Generated_Source\PSoC5/CapSense_CSHL.c ****                             }
1557:Generated_Source\PSoC5/CapSense_CSHL.c ****                         #endif /* (0u != (CapSense_IIR2_FILTER & 
1558:Generated_Source\PSoC5/CapSense_CSHL.c ****                                *          CapSense_RADIAL_SLIDERS_POS_FILTERS_MASK))
1559:Generated_Source\PSoC5/CapSense_CSHL.c ****                                */
1560:Generated_Source\PSoC5/CapSense_CSHL.c **** 
1561:Generated_Source\PSoC5/CapSense_CSHL.c ****                         #if (0u != (CapSense_IIR4_FILTER & CapSense_RADIAL_SLIDERS_POS_FILTERS_MASK
1562:Generated_Source\PSoC5/CapSense_CSHL.c ****                             if (0u != (posFiltersMask & CapSense_IIR4_FILTER))
ARM GAS  C:\Users\JEFFSN~1\AppData\Local\Temp\ccG3vFpC.s 			page 39


1563:Generated_Source\PSoC5/CapSense_CSHL.c ****                             {
1564:Generated_Source\PSoC5/CapSense_CSHL.c ****                                 position = CapSense_IIR4Filter(position,
1565:Generated_Source\PSoC5/CapSense_CSHL.c ****                                                                     (uint16)CapSense_posFiltersData
1566:Generated_Source\PSoC5/CapSense_CSHL.c ****                                 CapSense_posFiltersData[posIndex] = (uint8) position;
1567:Generated_Source\PSoC5/CapSense_CSHL.c ****                             }
1568:Generated_Source\PSoC5/CapSense_CSHL.c ****                         #endif /* (0u != (CapSense_IIR4_FILTER & 
1569:Generated_Source\PSoC5/CapSense_CSHL.c ****                                *          CapSense_RADIAL_SLIDERS_POS_FILTERS_MASK))
1570:Generated_Source\PSoC5/CapSense_CSHL.c ****                                */
1571:Generated_Source\PSoC5/CapSense_CSHL.c **** 
1572:Generated_Source\PSoC5/CapSense_CSHL.c ****                         #if (0u != (CapSense_JITTER_FILTER & CapSense_RADIAL_SLIDERS_POS_FILTERS_MA
1573:Generated_Source\PSoC5/CapSense_CSHL.c ****                             if (0u != (posFiltersMask & CapSense_JITTER_FILTER))
1574:Generated_Source\PSoC5/CapSense_CSHL.c ****                             {
1575:Generated_Source\PSoC5/CapSense_CSHL.c ****                                 position = CapSense_JitterFilter(position, 
1576:Generated_Source\PSoC5/CapSense_CSHL.c ****                                                                          CapSense_posFiltersData[po
1577:Generated_Source\PSoC5/CapSense_CSHL.c ****                                 CapSense_posFiltersData[posIndex] = (uint8) position;
1578:Generated_Source\PSoC5/CapSense_CSHL.c ****                             }
1579:Generated_Source\PSoC5/CapSense_CSHL.c ****                         #endif /* (0u != (CapSense_JITTER_FILTER &
1580:Generated_Source\PSoC5/CapSense_CSHL.c ****                                *           CapSense_RADIAL_SLIDERS_POS_FILTERS_MASK))
1581:Generated_Source\PSoC5/CapSense_CSHL.c ****                                */
1582:Generated_Source\PSoC5/CapSense_CSHL.c ****                     }
1583:Generated_Source\PSoC5/CapSense_CSHL.c ****                 }
1584:Generated_Source\PSoC5/CapSense_CSHL.c ****             #endif /* (0u != CapSense_RADIAL_SLIDERS_POS_FILTERS_MASK) */
1585:Generated_Source\PSoC5/CapSense_CSHL.c **** 
1586:Generated_Source\PSoC5/CapSense_CSHL.c ****         }
1587:Generated_Source\PSoC5/CapSense_CSHL.c ****         else
1588:Generated_Source\PSoC5/CapSense_CSHL.c ****         {
1589:Generated_Source\PSoC5/CapSense_CSHL.c ****             /* The maximum didn't find */
1590:Generated_Source\PSoC5/CapSense_CSHL.c ****             position = 0xFFFFu;
1591:Generated_Source\PSoC5/CapSense_CSHL.c **** 
1592:Generated_Source\PSoC5/CapSense_CSHL.c ****             #if (0u != CapSense_RADIAL_SLIDERS_POS_FILTERS_MASK)
1593:Generated_Source\PSoC5/CapSense_CSHL.c ****                 /* Reset the filters */
1594:Generated_Source\PSoC5/CapSense_CSHL.c ****                 if((posFiltersMask & CapSense_ANY_POS_FILTER) != 0u)
1595:Generated_Source\PSoC5/CapSense_CSHL.c ****                 {
1596:Generated_Source\PSoC5/CapSense_CSHL.c ****                     CapSense_posFiltersData[firstTimeIndex] = 0u;
1597:Generated_Source\PSoC5/CapSense_CSHL.c ****                 }
1598:Generated_Source\PSoC5/CapSense_CSHL.c ****             #endif /* (0u != CapSense_RADIAL_SLIDERS_POS_FILTERS_MASK) */
1599:Generated_Source\PSoC5/CapSense_CSHL.c ****         }
1600:Generated_Source\PSoC5/CapSense_CSHL.c ****         
1601:Generated_Source\PSoC5/CapSense_CSHL.c ****         return (position);
1602:Generated_Source\PSoC5/CapSense_CSHL.c ****     }
1603:Generated_Source\PSoC5/CapSense_CSHL.c **** #endif
1604:Generated_Source\PSoC5/CapSense_CSHL.c **** 
1605:Generated_Source\PSoC5/CapSense_CSHL.c **** 
1606:Generated_Source\PSoC5/CapSense_CSHL.c **** #if(CapSense_TOTAL_TOUCH_PADS_COUNT > 0u)
1607:Generated_Source\PSoC5/CapSense_CSHL.c ****     /*******************************************************************************
1608:Generated_Source\PSoC5/CapSense_CSHL.c ****     * Function Name: CapSense_GetTouchCentroidPos
1609:Generated_Source\PSoC5/CapSense_CSHL.c ****     ********************************************************************************
1610:Generated_Source\PSoC5/CapSense_CSHL.c ****     *
1611:Generated_Source\PSoC5/CapSense_CSHL.c ****     * Summary:
1612:Generated_Source\PSoC5/CapSense_CSHL.c ****     *  If a finger is present on touch pad, this function calculates the X and Y
1613:Generated_Source\PSoC5/CapSense_CSHL.c ****     *  position of the finger by calculating the centroids within touch pad specified
1614:Generated_Source\PSoC5/CapSense_CSHL.c ****     *  range. The X and Y positions are calculated to the API resolutions set in the
1615:Generated_Source\PSoC5/CapSense_CSHL.c ****     *  CapSense customizer. Returns a 1 if a finger is on the touchpad.
1616:Generated_Source\PSoC5/CapSense_CSHL.c ****     *  The position filter is applied to the result if enabled.
1617:Generated_Source\PSoC5/CapSense_CSHL.c ****     *  This function is available only if a touch pad is defined by the CapSense
1618:Generated_Source\PSoC5/CapSense_CSHL.c ****     *  customizer.
1619:Generated_Source\PSoC5/CapSense_CSHL.c ****     *
ARM GAS  C:\Users\JEFFSN~1\AppData\Local\Temp\ccG3vFpC.s 			page 40


1620:Generated_Source\PSoC5/CapSense_CSHL.c ****     * Parameters:
1621:Generated_Source\PSoC5/CapSense_CSHL.c ****     *  widget:  Widget number. 
1622:Generated_Source\PSoC5/CapSense_CSHL.c ****     *  For every touchpad widget there are defines in this format:
1623:Generated_Source\PSoC5/CapSense_CSHL.c ****     *  #define CapSense_TP_"widget_name"            5
1624:Generated_Source\PSoC5/CapSense_CSHL.c ****     *
1625:Generated_Source\PSoC5/CapSense_CSHL.c ****     *  pos:     Pointer to the array of two uint16 elements, where result
1626:Generated_Source\PSoC5/CapSense_CSHL.c ****     *  result of calculation of X and Y position are stored.
1627:Generated_Source\PSoC5/CapSense_CSHL.c ****     *  pos[0u]  - position of X
1628:Generated_Source\PSoC5/CapSense_CSHL.c ****     *  pos[1u]  - position of Y
1629:Generated_Source\PSoC5/CapSense_CSHL.c ****     *
1630:Generated_Source\PSoC5/CapSense_CSHL.c ****     * Return:
1631:Generated_Source\PSoC5/CapSense_CSHL.c ****     *  Returns a 1 if a finger is on the touch pad, 0 - if not.
1632:Generated_Source\PSoC5/CapSense_CSHL.c ****     *
1633:Generated_Source\PSoC5/CapSense_CSHL.c ****     * Side Effects:
1634:Generated_Source\PSoC5/CapSense_CSHL.c ****     *   There are no checks of widget type argument provided to this function.
1635:Generated_Source\PSoC5/CapSense_CSHL.c ****     *   The unproper widget type provided will cause unexpected position
1636:Generated_Source\PSoC5/CapSense_CSHL.c ****     *   calculations.
1637:Generated_Source\PSoC5/CapSense_CSHL.c ****     *
1638:Generated_Source\PSoC5/CapSense_CSHL.c ****     * Reentrant:
1639:Generated_Source\PSoC5/CapSense_CSHL.c ****     *  No.
1640:Generated_Source\PSoC5/CapSense_CSHL.c ****     *
1641:Generated_Source\PSoC5/CapSense_CSHL.c ****     *******************************************************************************/
1642:Generated_Source\PSoC5/CapSense_CSHL.c ****     uint8 CapSense_GetTouchCentroidPos(uint8 widget, uint16* pos)
1643:Generated_Source\PSoC5/CapSense_CSHL.c **** 	                                    
1644:Generated_Source\PSoC5/CapSense_CSHL.c ****     {
1645:Generated_Source\PSoC5/CapSense_CSHL.c ****         #if (0u != CapSense_TOUCH_PADS_POS_FILTERS_MASK)
1646:Generated_Source\PSoC5/CapSense_CSHL.c ****             uint8 posXIndex;
1647:Generated_Source\PSoC5/CapSense_CSHL.c ****             uint8 posYIndex;
1648:Generated_Source\PSoC5/CapSense_CSHL.c ****             uint8 firstTimeIndex = CapSense_posFiltersData[widget];
1649:Generated_Source\PSoC5/CapSense_CSHL.c ****             uint8 posFiltersMask = CapSense_posFiltersMask[widget];
1650:Generated_Source\PSoC5/CapSense_CSHL.c ****         #endif /* (0u != CapSense_TOUCH_PADS_POS_FILTERS_MASK) */
1651:Generated_Source\PSoC5/CapSense_CSHL.c **** 
1652:Generated_Source\PSoC5/CapSense_CSHL.c ****         #if ((0u != (CapSense_MEDIAN_FILTER & CapSense_TOUCH_PADS_POS_FILTERS_MASK)) || \
1653:Generated_Source\PSoC5/CapSense_CSHL.c ****              (0u != (CapSense_AVERAGING_FILTER & CapSense_TOUCH_PADS_POS_FILTERS_MASK)))
1654:Generated_Source\PSoC5/CapSense_CSHL.c ****             uint16 tempPos;
1655:Generated_Source\PSoC5/CapSense_CSHL.c ****         #endif /* ((0u != (CapSense_MEDIAN_FILTER & CapSense_TOUCH_PADS_POS_FILTERS_MASK)) || \
1656:Generated_Source\PSoC5/CapSense_CSHL.c ****                *   (0u != (CapSense_AVERAGING_FILTER & CapSense_TOUCH_PADS_POS_FILTERS_MASK)))
1657:Generated_Source\PSoC5/CapSense_CSHL.c ****                */
1658:Generated_Source\PSoC5/CapSense_CSHL.c **** 
1659:Generated_Source\PSoC5/CapSense_CSHL.c ****         uint8 maxX;
1660:Generated_Source\PSoC5/CapSense_CSHL.c ****         uint8 maxY;
1661:Generated_Source\PSoC5/CapSense_CSHL.c ****         uint8 posX;
1662:Generated_Source\PSoC5/CapSense_CSHL.c ****         uint8 posY;
1663:Generated_Source\PSoC5/CapSense_CSHL.c ****         uint8 touch = 0u;
1664:Generated_Source\PSoC5/CapSense_CSHL.c ****         uint8 offset = CapSense_rawDataIndex[widget];
1665:Generated_Source\PSoC5/CapSense_CSHL.c ****         uint8 count = CapSense_numberOfSensors[widget];
1666:Generated_Source\PSoC5/CapSense_CSHL.c ****         
1667:Generated_Source\PSoC5/CapSense_CSHL.c ****         /* Find Maximum within X centroid */
1668:Generated_Source\PSoC5/CapSense_CSHL.c ****         #if (CapSense_IS_DIPLEX_SLIDER)
1669:Generated_Source\PSoC5/CapSense_CSHL.c ****             maxX = CapSense_FindMaximum(offset, count, CapSense_fingerThreshold[widget], 0u);
1670:Generated_Source\PSoC5/CapSense_CSHL.c ****         #else
1671:Generated_Source\PSoC5/CapSense_CSHL.c ****             maxX = CapSense_FindMaximum(offset, count, CapSense_fingerThreshold[widget]);
1672:Generated_Source\PSoC5/CapSense_CSHL.c ****         #endif /* (CapSense_IS_DIPLEX_SLIDER) */
1673:Generated_Source\PSoC5/CapSense_CSHL.c **** 
1674:Generated_Source\PSoC5/CapSense_CSHL.c ****         if (maxX != 0xFFu)
1675:Generated_Source\PSoC5/CapSense_CSHL.c ****         {
1676:Generated_Source\PSoC5/CapSense_CSHL.c ****             offset = CapSense_rawDataIndex[widget + 1u];
ARM GAS  C:\Users\JEFFSN~1\AppData\Local\Temp\ccG3vFpC.s 			page 41


1677:Generated_Source\PSoC5/CapSense_CSHL.c ****             count = CapSense_numberOfSensors[widget + 1u];
1678:Generated_Source\PSoC5/CapSense_CSHL.c **** 
1679:Generated_Source\PSoC5/CapSense_CSHL.c ****             /* Find Maximum within Y centroid */
1680:Generated_Source\PSoC5/CapSense_CSHL.c ****             #if (CapSense_IS_DIPLEX_SLIDER)
1681:Generated_Source\PSoC5/CapSense_CSHL.c ****                 maxY = CapSense_FindMaximum(offset, count, CapSense_fingerThreshold[widget + 1u], 0
1682:Generated_Source\PSoC5/CapSense_CSHL.c ****             #else
1683:Generated_Source\PSoC5/CapSense_CSHL.c ****                 maxY = CapSense_FindMaximum(offset, count, CapSense_fingerThreshold[widget + 1u]);
1684:Generated_Source\PSoC5/CapSense_CSHL.c ****             #endif /* (CapSense_IS_DIPLEX_SLIDER) */
1685:Generated_Source\PSoC5/CapSense_CSHL.c **** 
1686:Generated_Source\PSoC5/CapSense_CSHL.c ****             if (maxY != 0xFFu)
1687:Generated_Source\PSoC5/CapSense_CSHL.c ****             {
1688:Generated_Source\PSoC5/CapSense_CSHL.c ****                 /* X and Y maximums are found = true touch */
1689:Generated_Source\PSoC5/CapSense_CSHL.c ****                 touch = 1u;
1690:Generated_Source\PSoC5/CapSense_CSHL.c ****                 
1691:Generated_Source\PSoC5/CapSense_CSHL.c ****                 /* Calculate Y centroid */
1692:Generated_Source\PSoC5/CapSense_CSHL.c ****                 posY = CapSense_CalcCentroid(maxY, offset, count, 
1693:Generated_Source\PSoC5/CapSense_CSHL.c ****                             CapSense_centroidMult[widget + 1u], CapSense_noiseThreshold[widget + 1u
1694:Generated_Source\PSoC5/CapSense_CSHL.c ****                 
1695:Generated_Source\PSoC5/CapSense_CSHL.c ****                 /* Calculate X centroid */
1696:Generated_Source\PSoC5/CapSense_CSHL.c ****                 offset = CapSense_rawDataIndex[widget];
1697:Generated_Source\PSoC5/CapSense_CSHL.c ****                 count = CapSense_numberOfSensors[widget];
1698:Generated_Source\PSoC5/CapSense_CSHL.c ****                 
1699:Generated_Source\PSoC5/CapSense_CSHL.c ****                 posX = CapSense_CalcCentroid(maxX, offset, count, 
1700:Generated_Source\PSoC5/CapSense_CSHL.c ****                             CapSense_centroidMult[widget],CapSense_noiseThreshold[widget]);
1701:Generated_Source\PSoC5/CapSense_CSHL.c ****     
1702:Generated_Source\PSoC5/CapSense_CSHL.c ****                 #if (0u != CapSense_TOUCH_PADS_POS_FILTERS_MASK)
1703:Generated_Source\PSoC5/CapSense_CSHL.c ****                     /* Check if this TP has enabled filters */
1704:Generated_Source\PSoC5/CapSense_CSHL.c ****                     if (0u != (posFiltersMask & CapSense_ANY_POS_FILTER))
1705:Generated_Source\PSoC5/CapSense_CSHL.c ****                     {
1706:Generated_Source\PSoC5/CapSense_CSHL.c ****                         /* Caluclate position to store filters data */
1707:Generated_Source\PSoC5/CapSense_CSHL.c ****                         posXIndex  = firstTimeIndex + 1u;
1708:Generated_Source\PSoC5/CapSense_CSHL.c ****                         posYIndex  = CapSense_posFiltersData[widget + 1u];
1709:Generated_Source\PSoC5/CapSense_CSHL.c ****                         
1710:Generated_Source\PSoC5/CapSense_CSHL.c ****                         if (0u == CapSense_posFiltersData[firstTimeIndex])
1711:Generated_Source\PSoC5/CapSense_CSHL.c ****                         {
1712:Generated_Source\PSoC5/CapSense_CSHL.c ****                             /* Init filters */
1713:Generated_Source\PSoC5/CapSense_CSHL.c ****                             CapSense_posFiltersData[posXIndex] = posX;
1714:Generated_Source\PSoC5/CapSense_CSHL.c ****                             CapSense_posFiltersData[posYIndex] = posY;
1715:Generated_Source\PSoC5/CapSense_CSHL.c **** 
1716:Generated_Source\PSoC5/CapSense_CSHL.c ****                             #if((0u != (CapSense_MEDIAN_FILTER & \
1717:Generated_Source\PSoC5/CapSense_CSHL.c ****                                         CapSense_TOUCH_PADS_POS_FILTERS_MASK))|| \
1718:Generated_Source\PSoC5/CapSense_CSHL.c ****                                 (0u != (CapSense_AVERAGING_FILTER & \
1719:Generated_Source\PSoC5/CapSense_CSHL.c ****                                         CapSense_TOUCH_PADS_POS_FILTERS_MASK)))
1720:Generated_Source\PSoC5/CapSense_CSHL.c **** 
1721:Generated_Source\PSoC5/CapSense_CSHL.c ****                                 if ( (0u != (posFiltersMask & CapSense_MEDIAN_FILTER)) || 
1722:Generated_Source\PSoC5/CapSense_CSHL.c ****                                      (0u != (posFiltersMask & CapSense_AVERAGING_FILTER)) )
1723:Generated_Source\PSoC5/CapSense_CSHL.c ****                                 {
1724:Generated_Source\PSoC5/CapSense_CSHL.c ****                                     CapSense_posFiltersData[posXIndex + 1u] = posX;
1725:Generated_Source\PSoC5/CapSense_CSHL.c ****                                     CapSense_posFiltersData[posYIndex + 1u] = posY;
1726:Generated_Source\PSoC5/CapSense_CSHL.c ****                                 }
1727:Generated_Source\PSoC5/CapSense_CSHL.c ****                             #endif /* ((0u != (CapSense_MEDIAN_FILTER & \
1728:Generated_Source\PSoC5/CapSense_CSHL.c ****                                    *           CapSense_TOUCH_PADS_POS_FILTERS_MASK)) || \
1729:Generated_Source\PSoC5/CapSense_CSHL.c ****                                    *    (0u != (CapSense_AVERAGING_FILTER & \
1730:Generated_Source\PSoC5/CapSense_CSHL.c ****                                    *            CapSense_TOUCH_PADS_POS_FILTERS_MASK)))
1731:Generated_Source\PSoC5/CapSense_CSHL.c ****                                    */
1732:Generated_Source\PSoC5/CapSense_CSHL.c ****                             
1733:Generated_Source\PSoC5/CapSense_CSHL.c ****                             CapSense_posFiltersData[firstTimeIndex] = 1u;
ARM GAS  C:\Users\JEFFSN~1\AppData\Local\Temp\ccG3vFpC.s 			page 42


1734:Generated_Source\PSoC5/CapSense_CSHL.c ****                         }
1735:Generated_Source\PSoC5/CapSense_CSHL.c ****                         else
1736:Generated_Source\PSoC5/CapSense_CSHL.c ****                         {
1737:Generated_Source\PSoC5/CapSense_CSHL.c ****                             /* Do filtering */
1738:Generated_Source\PSoC5/CapSense_CSHL.c ****                             #if (0u != (CapSense_MEDIAN_FILTER & CapSense_TOUCH_PADS_POS_FILTERS_MA
1739:Generated_Source\PSoC5/CapSense_CSHL.c ****                                 if (0u != (posFiltersMask & CapSense_MEDIAN_FILTER))
1740:Generated_Source\PSoC5/CapSense_CSHL.c ****                                 {
1741:Generated_Source\PSoC5/CapSense_CSHL.c ****                                     tempPos = posX;
1742:Generated_Source\PSoC5/CapSense_CSHL.c ****                                     posX = (uint8) CapSense_MedianFilter(posX,
1743:Generated_Source\PSoC5/CapSense_CSHL.c ****                                                                       CapSense_posFiltersData[posXI
1744:Generated_Source\PSoC5/CapSense_CSHL.c ****                                                                       CapSense_posFiltersData[posXI
1745:Generated_Source\PSoC5/CapSense_CSHL.c ****                                     CapSense_posFiltersData[posXIndex + 1u] = 
1746:Generated_Source\PSoC5/CapSense_CSHL.c ****                                                                              CapSense_posFiltersDat
1747:Generated_Source\PSoC5/CapSense_CSHL.c ****                                     CapSense_posFiltersData[posXIndex] = tempPos;
1748:Generated_Source\PSoC5/CapSense_CSHL.c ****                                     
1749:Generated_Source\PSoC5/CapSense_CSHL.c ****                                     tempPos = posY;
1750:Generated_Source\PSoC5/CapSense_CSHL.c ****                                     posY = (uint8) CapSense_MedianFilter(posY,
1751:Generated_Source\PSoC5/CapSense_CSHL.c ****                                                                        CapSense_posFiltersData[posY
1752:Generated_Source\PSoC5/CapSense_CSHL.c ****                                                                        CapSense_posFiltersData[posY
1753:Generated_Source\PSoC5/CapSense_CSHL.c ****                                     CapSense_posFiltersData[posYIndex + 1u] = 
1754:Generated_Source\PSoC5/CapSense_CSHL.c ****                                                                              CapSense_posFiltersDat
1755:Generated_Source\PSoC5/CapSense_CSHL.c ****                                     CapSense_posFiltersData[posYIndex] = tempPos;
1756:Generated_Source\PSoC5/CapSense_CSHL.c ****                                 }
1757:Generated_Source\PSoC5/CapSense_CSHL.c ****                                 
1758:Generated_Source\PSoC5/CapSense_CSHL.c ****                             #endif /* (0u != (CapSense_MEDIAN_FILTER & \
1759:Generated_Source\PSoC5/CapSense_CSHL.c ****                                    *          CapSense_TOUCH_PADS_POS_FILTERS_MASK))
1760:Generated_Source\PSoC5/CapSense_CSHL.c ****                                    */
1761:Generated_Source\PSoC5/CapSense_CSHL.c **** 
1762:Generated_Source\PSoC5/CapSense_CSHL.c ****                             #if(0u !=(CapSense_AVERAGING_FILTER & CapSense_TOUCH_PADS_POS_FILTERS_M
1763:Generated_Source\PSoC5/CapSense_CSHL.c ****                                 if (0u != (posFiltersMask & CapSense_AVERAGING_FILTER))
1764:Generated_Source\PSoC5/CapSense_CSHL.c ****                                 {
1765:Generated_Source\PSoC5/CapSense_CSHL.c ****                                     tempPos = posX;
1766:Generated_Source\PSoC5/CapSense_CSHL.c ****                                     posX = (uint8) CapSense_AveragingFilter(posX,
1767:Generated_Source\PSoC5/CapSense_CSHL.c ****                                                                        CapSense_posFiltersData[posX
1768:Generated_Source\PSoC5/CapSense_CSHL.c ****                                                                        CapSense_posFiltersData[posX
1769:Generated_Source\PSoC5/CapSense_CSHL.c ****                                     CapSense_posFiltersData[posXIndex + 1u] = 
1770:Generated_Source\PSoC5/CapSense_CSHL.c ****                                                                              CapSense_posFiltersDat
1771:Generated_Source\PSoC5/CapSense_CSHL.c ****                                     CapSense_posFiltersData[posXIndex] = tempPos;
1772:Generated_Source\PSoC5/CapSense_CSHL.c ****                                     
1773:Generated_Source\PSoC5/CapSense_CSHL.c ****                                     tempPos = posY;
1774:Generated_Source\PSoC5/CapSense_CSHL.c ****                                     posY = (uint8) CapSense_AveragingFilter(posY, 
1775:Generated_Source\PSoC5/CapSense_CSHL.c ****                                                                       CapSense_posFiltersData[posYI
1776:Generated_Source\PSoC5/CapSense_CSHL.c ****                                                                       CapSense_posFiltersData[posYI
1777:Generated_Source\PSoC5/CapSense_CSHL.c ****                                     CapSense_posFiltersData[posYIndex + 1u] = 
1778:Generated_Source\PSoC5/CapSense_CSHL.c ****                                                                             CapSense_posFiltersData
1779:Generated_Source\PSoC5/CapSense_CSHL.c ****                                     CapSense_posFiltersData[posYIndex] = tempPos;
1780:Generated_Source\PSoC5/CapSense_CSHL.c ****                                 }
1781:Generated_Source\PSoC5/CapSense_CSHL.c **** 
1782:Generated_Source\PSoC5/CapSense_CSHL.c ****                             #endif /* (0u != (CapSense_AVERAGING_FILTER & \
1783:Generated_Source\PSoC5/CapSense_CSHL.c ****                                    *           CapSense_TOUCH_PADS_POS_FILTERS_MASK))
1784:Generated_Source\PSoC5/CapSense_CSHL.c ****                                    */
1785:Generated_Source\PSoC5/CapSense_CSHL.c **** 
1786:Generated_Source\PSoC5/CapSense_CSHL.c ****                             #if (0u != (CapSense_IIR2_FILTER & CapSense_TOUCH_PADS_POS_FILTERS_MASK
1787:Generated_Source\PSoC5/CapSense_CSHL.c ****                                 if (0u != (posFiltersMask & CapSense_IIR2_FILTER))
1788:Generated_Source\PSoC5/CapSense_CSHL.c ****                                 {
1789:Generated_Source\PSoC5/CapSense_CSHL.c ****                                     posX = (uint8) CapSense_IIR2Filter(posX, 
1790:Generated_Source\PSoC5/CapSense_CSHL.c ****                                                                            CapSense_posFiltersData[
ARM GAS  C:\Users\JEFFSN~1\AppData\Local\Temp\ccG3vFpC.s 			page 43


1791:Generated_Source\PSoC5/CapSense_CSHL.c ****                                     CapSense_posFiltersData[posXIndex] = posX;
1792:Generated_Source\PSoC5/CapSense_CSHL.c ****                                     
1793:Generated_Source\PSoC5/CapSense_CSHL.c ****                                     posY = (uint8) CapSense_IIR2Filter(posY, 
1794:Generated_Source\PSoC5/CapSense_CSHL.c ****                                                                             CapSense_posFiltersData
1795:Generated_Source\PSoC5/CapSense_CSHL.c ****                                     CapSense_posFiltersData[posYIndex] = posY;
1796:Generated_Source\PSoC5/CapSense_CSHL.c ****                                 }
1797:Generated_Source\PSoC5/CapSense_CSHL.c ****                                 
1798:Generated_Source\PSoC5/CapSense_CSHL.c ****                             #endif /* (0u != (CapSense_IIR2_FILTER & \
1799:Generated_Source\PSoC5/CapSense_CSHL.c ****                                    *          CapSense_TOUCH_PADS_POS_FILTERS_MASK))
1800:Generated_Source\PSoC5/CapSense_CSHL.c ****                                    */
1801:Generated_Source\PSoC5/CapSense_CSHL.c **** 
1802:Generated_Source\PSoC5/CapSense_CSHL.c ****                             #if (0u != (CapSense_IIR4_FILTER & CapSense_TOUCH_PADS_POS_FILTERS_MASK
1803:Generated_Source\PSoC5/CapSense_CSHL.c ****                                 if (0u != (posFiltersMask & CapSense_IIR4_FILTER))
1804:Generated_Source\PSoC5/CapSense_CSHL.c ****                                 {
1805:Generated_Source\PSoC5/CapSense_CSHL.c ****                                     posX = (uint8) CapSense_IIR4Filter((uint16)posX,
1806:Generated_Source\PSoC5/CapSense_CSHL.c ****                                                                     (uint16)CapSense_posFiltersData
1807:Generated_Source\PSoC5/CapSense_CSHL.c ****                                     CapSense_posFiltersData[posXIndex] = posX;
1808:Generated_Source\PSoC5/CapSense_CSHL.c **** 
1809:Generated_Source\PSoC5/CapSense_CSHL.c ****                                     posY = (uint8) CapSense_IIR4Filter((uint16)posY,
1810:Generated_Source\PSoC5/CapSense_CSHL.c ****                                                                     (uint16)CapSense_posFiltersData
1811:Generated_Source\PSoC5/CapSense_CSHL.c ****                                     CapSense_posFiltersData[posYIndex] = posY;
1812:Generated_Source\PSoC5/CapSense_CSHL.c ****                                 }
1813:Generated_Source\PSoC5/CapSense_CSHL.c ****                                 
1814:Generated_Source\PSoC5/CapSense_CSHL.c ****                             #endif /* (0u != (CapSense_IIR4_FILTER & \
1815:Generated_Source\PSoC5/CapSense_CSHL.c ****                                    *           CapSense_TOUCH_PADS_POS_FILTERS_MASK))
1816:Generated_Source\PSoC5/CapSense_CSHL.c ****                                    */
1817:Generated_Source\PSoC5/CapSense_CSHL.c **** 
1818:Generated_Source\PSoC5/CapSense_CSHL.c ****                             #if (0u != (CapSense_JITTER_FILTER & CapSense_TOUCH_PADS_POS_FILTERS_MA
1819:Generated_Source\PSoC5/CapSense_CSHL.c ****                                 if (0u != (posFiltersMask & CapSense_JITTER_FILTER))
1820:Generated_Source\PSoC5/CapSense_CSHL.c ****                                     {
1821:Generated_Source\PSoC5/CapSense_CSHL.c ****                                         posX = (uint8) CapSense_JitterFilter(posX, 
1822:Generated_Source\PSoC5/CapSense_CSHL.c ****                                                                             CapSense_posFiltersData
1823:Generated_Source\PSoC5/CapSense_CSHL.c ****                                         CapSense_posFiltersData[posXIndex] = posX;
1824:Generated_Source\PSoC5/CapSense_CSHL.c ****                                         
1825:Generated_Source\PSoC5/CapSense_CSHL.c ****                                         posY = (uint8) CapSense_JitterFilter(posY, 
1826:Generated_Source\PSoC5/CapSense_CSHL.c ****                                                                             CapSense_posFiltersData
1827:Generated_Source\PSoC5/CapSense_CSHL.c ****                                         CapSense_posFiltersData[posYIndex] = posY;
1828:Generated_Source\PSoC5/CapSense_CSHL.c ****                                     }
1829:Generated_Source\PSoC5/CapSense_CSHL.c ****                             #endif /* (0u != (CapSense_JITTER_FILTER & \
1830:Generated_Source\PSoC5/CapSense_CSHL.c ****                                    *           CapSense_TOUCH_PADS_POS_FILTERS_MASK))
1831:Generated_Source\PSoC5/CapSense_CSHL.c ****                                    */
1832:Generated_Source\PSoC5/CapSense_CSHL.c ****                         }
1833:Generated_Source\PSoC5/CapSense_CSHL.c ****                     }
1834:Generated_Source\PSoC5/CapSense_CSHL.c ****                 #endif /* (0u != CapSense_TOUCH_PADS_POS_FILTERS_MASK) */
1835:Generated_Source\PSoC5/CapSense_CSHL.c **** 
1836:Generated_Source\PSoC5/CapSense_CSHL.c ****                 /* Save positions */
1837:Generated_Source\PSoC5/CapSense_CSHL.c ****                 pos[0u] = posX;
1838:Generated_Source\PSoC5/CapSense_CSHL.c ****                 pos[1u] = posY;
1839:Generated_Source\PSoC5/CapSense_CSHL.c ****             }
1840:Generated_Source\PSoC5/CapSense_CSHL.c ****         }
1841:Generated_Source\PSoC5/CapSense_CSHL.c **** 
1842:Generated_Source\PSoC5/CapSense_CSHL.c ****         #if (0u != CapSense_TOUCH_PADS_POS_FILTERS_MASK)
1843:Generated_Source\PSoC5/CapSense_CSHL.c ****             if(touch == 0u)
1844:Generated_Source\PSoC5/CapSense_CSHL.c ****             {
1845:Generated_Source\PSoC5/CapSense_CSHL.c ****                 /* Reset the filters */
1846:Generated_Source\PSoC5/CapSense_CSHL.c ****                 if ((posFiltersMask & CapSense_ANY_POS_FILTER) != 0u)
1847:Generated_Source\PSoC5/CapSense_CSHL.c ****                 {
ARM GAS  C:\Users\JEFFSN~1\AppData\Local\Temp\ccG3vFpC.s 			page 44


1848:Generated_Source\PSoC5/CapSense_CSHL.c ****                     CapSense_posFiltersData[firstTimeIndex] = 0u;
1849:Generated_Source\PSoC5/CapSense_CSHL.c ****                 }
1850:Generated_Source\PSoC5/CapSense_CSHL.c ****             }
1851:Generated_Source\PSoC5/CapSense_CSHL.c ****         #endif /* (0u != CapSense_TOUCH_PADS_POS_FILTERS_MASK) */
1852:Generated_Source\PSoC5/CapSense_CSHL.c ****         
1853:Generated_Source\PSoC5/CapSense_CSHL.c ****         return (touch);
1854:Generated_Source\PSoC5/CapSense_CSHL.c ****     }
1855:Generated_Source\PSoC5/CapSense_CSHL.c **** #endif /* (CapSense_TOTAL_TOUCH_PADS_COUNT > 0u) */
1856:Generated_Source\PSoC5/CapSense_CSHL.c **** 
1857:Generated_Source\PSoC5/CapSense_CSHL.c **** 
1858:Generated_Source\PSoC5/CapSense_CSHL.c **** #if ( (CapSense_RAW_FILTER_MASK & CapSense_MEDIAN_FILTER) | \
1859:Generated_Source\PSoC5/CapSense_CSHL.c ****       (CapSense_POS_FILTERS_MASK & CapSense_MEDIAN_FILTER) )
1860:Generated_Source\PSoC5/CapSense_CSHL.c ****     /*******************************************************************************
1861:Generated_Source\PSoC5/CapSense_CSHL.c ****     * Function Name: CapSense_MedianFilter
1862:Generated_Source\PSoC5/CapSense_CSHL.c ****     ********************************************************************************
1863:Generated_Source\PSoC5/CapSense_CSHL.c ****     *
1864:Generated_Source\PSoC5/CapSense_CSHL.c ****     * Summary:
1865:Generated_Source\PSoC5/CapSense_CSHL.c ****     *  Median filter function. 
1866:Generated_Source\PSoC5/CapSense_CSHL.c ****     *  The median filter looks at the three most recent samples and reports the 
1867:Generated_Source\PSoC5/CapSense_CSHL.c ****     *  median value.
1868:Generated_Source\PSoC5/CapSense_CSHL.c ****     *
1869:Generated_Source\PSoC5/CapSense_CSHL.c ****     * Parameters:
1870:Generated_Source\PSoC5/CapSense_CSHL.c ****     *  x1:  Current value.
1871:Generated_Source\PSoC5/CapSense_CSHL.c ****     *  x2:  Previous value.
1872:Generated_Source\PSoC5/CapSense_CSHL.c ****     *  x3:  Before previous value.
1873:Generated_Source\PSoC5/CapSense_CSHL.c ****     *
1874:Generated_Source\PSoC5/CapSense_CSHL.c ****     * Return:
1875:Generated_Source\PSoC5/CapSense_CSHL.c ****     *  Returns filtered value.
1876:Generated_Source\PSoC5/CapSense_CSHL.c ****     *
1877:Generated_Source\PSoC5/CapSense_CSHL.c ****     *******************************************************************************/
1878:Generated_Source\PSoC5/CapSense_CSHL.c ****     uint16 CapSense_MedianFilter(uint16 x1, uint16 x2, uint16 x3)
1879:Generated_Source\PSoC5/CapSense_CSHL.c ****                                          
1880:Generated_Source\PSoC5/CapSense_CSHL.c ****     {
1881:Generated_Source\PSoC5/CapSense_CSHL.c ****         uint16 tmp;
1882:Generated_Source\PSoC5/CapSense_CSHL.c ****         
1883:Generated_Source\PSoC5/CapSense_CSHL.c ****         if (x1 > x2)
1884:Generated_Source\PSoC5/CapSense_CSHL.c ****         {
1885:Generated_Source\PSoC5/CapSense_CSHL.c ****             tmp = x2;
1886:Generated_Source\PSoC5/CapSense_CSHL.c ****             x2 = x1;
1887:Generated_Source\PSoC5/CapSense_CSHL.c ****             x1 = tmp;
1888:Generated_Source\PSoC5/CapSense_CSHL.c ****         }
1889:Generated_Source\PSoC5/CapSense_CSHL.c ****         
1890:Generated_Source\PSoC5/CapSense_CSHL.c ****         if (x2 > x3)
1891:Generated_Source\PSoC5/CapSense_CSHL.c ****         {
1892:Generated_Source\PSoC5/CapSense_CSHL.c ****             x2 = x3;
1893:Generated_Source\PSoC5/CapSense_CSHL.c ****         }
1894:Generated_Source\PSoC5/CapSense_CSHL.c ****         
1895:Generated_Source\PSoC5/CapSense_CSHL.c ****         return ((x1 > x2) ? x1 : x2);
1896:Generated_Source\PSoC5/CapSense_CSHL.c ****     }
1897:Generated_Source\PSoC5/CapSense_CSHL.c **** #endif /* ( (CapSense_RAW_FILTER_MASK & CapSense_MEDIAN_FILTER) | \
1898:Generated_Source\PSoC5/CapSense_CSHL.c ****        *    (CapSense_POS_FILTERS_MASK & CapSense_MEDIAN_FILTER) )
1899:Generated_Source\PSoC5/CapSense_CSHL.c ****        */
1900:Generated_Source\PSoC5/CapSense_CSHL.c **** 
1901:Generated_Source\PSoC5/CapSense_CSHL.c **** 
1902:Generated_Source\PSoC5/CapSense_CSHL.c **** #if ( (CapSense_RAW_FILTER_MASK & CapSense_AVERAGING_FILTER) | \
1903:Generated_Source\PSoC5/CapSense_CSHL.c ****       (CapSense_POS_FILTERS_MASK & CapSense_AVERAGING_FILTER) )
1904:Generated_Source\PSoC5/CapSense_CSHL.c ****     /*******************************************************************************
ARM GAS  C:\Users\JEFFSN~1\AppData\Local\Temp\ccG3vFpC.s 			page 45


1905:Generated_Source\PSoC5/CapSense_CSHL.c ****     * Function Name: CapSense_AveragingFilter
1906:Generated_Source\PSoC5/CapSense_CSHL.c ****     ********************************************************************************
1907:Generated_Source\PSoC5/CapSense_CSHL.c ****     *
1908:Generated_Source\PSoC5/CapSense_CSHL.c ****     * Summary:
1909:Generated_Source\PSoC5/CapSense_CSHL.c ****     *  Averaging filter function.
1910:Generated_Source\PSoC5/CapSense_CSHL.c ****     *  The averaging filter looks at the three most recent samples of position and
1911:Generated_Source\PSoC5/CapSense_CSHL.c ****     *  reports the averaging value.
1912:Generated_Source\PSoC5/CapSense_CSHL.c ****     *
1913:Generated_Source\PSoC5/CapSense_CSHL.c ****     * Parameters:
1914:Generated_Source\PSoC5/CapSense_CSHL.c ****     *  x1:  Current value.
1915:Generated_Source\PSoC5/CapSense_CSHL.c ****     *  x2:  Previous value.
1916:Generated_Source\PSoC5/CapSense_CSHL.c ****     *  x3:  Before previous value.
1917:Generated_Source\PSoC5/CapSense_CSHL.c ****     *
1918:Generated_Source\PSoC5/CapSense_CSHL.c ****     * Return:
1919:Generated_Source\PSoC5/CapSense_CSHL.c ****     *  Returns filtered value.
1920:Generated_Source\PSoC5/CapSense_CSHL.c ****     *
1921:Generated_Source\PSoC5/CapSense_CSHL.c ****     *******************************************************************************/
1922:Generated_Source\PSoC5/CapSense_CSHL.c ****     uint16 CapSense_AveragingFilter(uint16 x1, uint16 x2, uint16 x3)
1923:Generated_Source\PSoC5/CapSense_CSHL.c ****                                             
1924:Generated_Source\PSoC5/CapSense_CSHL.c ****     {
1925:Generated_Source\PSoC5/CapSense_CSHL.c ****         uint32 tmp = ((uint32)x1 + (uint32)x2 + (uint32)x3) / 3u;
1926:Generated_Source\PSoC5/CapSense_CSHL.c ****         
1927:Generated_Source\PSoC5/CapSense_CSHL.c ****         return ((uint16) tmp);
1928:Generated_Source\PSoC5/CapSense_CSHL.c ****     }
1929:Generated_Source\PSoC5/CapSense_CSHL.c **** #endif /* ( (CapSense_RAW_FILTER_MASK & CapSense_AVERAGING_FILTER) | \
1930:Generated_Source\PSoC5/CapSense_CSHL.c ****        *    (CapSense_POS_FILTERS_MASK & CapSense_AVERAGING_FILTER) )
1931:Generated_Source\PSoC5/CapSense_CSHL.c ****        */
1932:Generated_Source\PSoC5/CapSense_CSHL.c **** 
1933:Generated_Source\PSoC5/CapSense_CSHL.c **** 
1934:Generated_Source\PSoC5/CapSense_CSHL.c **** #if ( (CapSense_RAW_FILTER_MASK & CapSense_IIR2_FILTER) | \
1935:Generated_Source\PSoC5/CapSense_CSHL.c ****       (CapSense_POS_FILTERS_MASK & CapSense_IIR2_FILTER) )
1936:Generated_Source\PSoC5/CapSense_CSHL.c ****     /*******************************************************************************
1937:Generated_Source\PSoC5/CapSense_CSHL.c ****     * Function Name: CapSense_IIR2Filter
1938:Generated_Source\PSoC5/CapSense_CSHL.c ****     ********************************************************************************
1939:Generated_Source\PSoC5/CapSense_CSHL.c ****     *
1940:Generated_Source\PSoC5/CapSense_CSHL.c ****     * Summary:
1941:Generated_Source\PSoC5/CapSense_CSHL.c ****     *  IIR1/2 filter function. IIR1/2 = 1/2current + 1/2previous.
1942:Generated_Source\PSoC5/CapSense_CSHL.c ****     *
1943:Generated_Source\PSoC5/CapSense_CSHL.c ****     * Parameters:
1944:Generated_Source\PSoC5/CapSense_CSHL.c ****     *  x1:  Current value.
1945:Generated_Source\PSoC5/CapSense_CSHL.c ****     *  x2:  Previous value.
1946:Generated_Source\PSoC5/CapSense_CSHL.c ****     *
1947:Generated_Source\PSoC5/CapSense_CSHL.c ****     * Return:
1948:Generated_Source\PSoC5/CapSense_CSHL.c ****     *  Returns filtered value.
1949:Generated_Source\PSoC5/CapSense_CSHL.c ****     *
1950:Generated_Source\PSoC5/CapSense_CSHL.c ****     *******************************************************************************/
1951:Generated_Source\PSoC5/CapSense_CSHL.c ****     uint16 CapSense_IIR2Filter(uint16 x1, uint16 x2)
1952:Generated_Source\PSoC5/CapSense_CSHL.c ****                                        
1953:Generated_Source\PSoC5/CapSense_CSHL.c ****     {
1954:Generated_Source\PSoC5/CapSense_CSHL.c ****         uint32 tmp;
1955:Generated_Source\PSoC5/CapSense_CSHL.c ****         
1956:Generated_Source\PSoC5/CapSense_CSHL.c ****         /* IIR = 1/2 Current Value+ 1/2 Previous Value */
1957:Generated_Source\PSoC5/CapSense_CSHL.c ****         tmp = (uint32)x1 + (uint32)x2;
1958:Generated_Source\PSoC5/CapSense_CSHL.c ****         tmp >>= 1u;
1959:Generated_Source\PSoC5/CapSense_CSHL.c ****     
1960:Generated_Source\PSoC5/CapSense_CSHL.c ****         return ((uint16) tmp);
1961:Generated_Source\PSoC5/CapSense_CSHL.c ****     }
ARM GAS  C:\Users\JEFFSN~1\AppData\Local\Temp\ccG3vFpC.s 			page 46


1962:Generated_Source\PSoC5/CapSense_CSHL.c **** #endif /* ( (CapSense_RAW_FILTER_MASK & CapSense_IIR2_FILTER) | \
1963:Generated_Source\PSoC5/CapSense_CSHL.c ****        *    (CapSense_POS_FILTERS_MASK & CapSense_IIR2_FILTER) )
1964:Generated_Source\PSoC5/CapSense_CSHL.c ****        */
1965:Generated_Source\PSoC5/CapSense_CSHL.c **** 
1966:Generated_Source\PSoC5/CapSense_CSHL.c **** 
1967:Generated_Source\PSoC5/CapSense_CSHL.c **** #if ( (CapSense_RAW_FILTER_MASK & CapSense_IIR4_FILTER) | \
1968:Generated_Source\PSoC5/CapSense_CSHL.c ****       (CapSense_POS_FILTERS_MASK & CapSense_IIR4_FILTER) )
1969:Generated_Source\PSoC5/CapSense_CSHL.c ****     /*******************************************************************************
1970:Generated_Source\PSoC5/CapSense_CSHL.c ****     * Function Name: CapSense_IIR4Filter
1971:Generated_Source\PSoC5/CapSense_CSHL.c ****     ********************************************************************************
1972:Generated_Source\PSoC5/CapSense_CSHL.c ****     *
1973:Generated_Source\PSoC5/CapSense_CSHL.c ****     * Summary:
1974:Generated_Source\PSoC5/CapSense_CSHL.c ****     *  IIR1/4 filter function. IIR1/4 = 1/4current + 3/4previous.
1975:Generated_Source\PSoC5/CapSense_CSHL.c ****     *
1976:Generated_Source\PSoC5/CapSense_CSHL.c ****     * Parameters:
1977:Generated_Source\PSoC5/CapSense_CSHL.c ****     *  x1:  Current value.
1978:Generated_Source\PSoC5/CapSense_CSHL.c ****     *  x2:  Previous value.
1979:Generated_Source\PSoC5/CapSense_CSHL.c ****     *
1980:Generated_Source\PSoC5/CapSense_CSHL.c ****     * Return:
1981:Generated_Source\PSoC5/CapSense_CSHL.c ****     *  Returns filtered value.
1982:Generated_Source\PSoC5/CapSense_CSHL.c ****     *
1983:Generated_Source\PSoC5/CapSense_CSHL.c ****     *******************************************************************************/
1984:Generated_Source\PSoC5/CapSense_CSHL.c ****     uint16 CapSense_IIR4Filter(uint16 x1, uint16 x2)
1985:Generated_Source\PSoC5/CapSense_CSHL.c ****                                        
1986:Generated_Source\PSoC5/CapSense_CSHL.c ****     {
 599              		.loc 1 1986 0
 600              		.cfi_startproc
 601              		@ args = 0, pretend = 0, frame = 0
 602              		@ frame_needed = 0, uses_anonymous_args = 0
 603              		@ link register save eliminated.
 604              	.LVL70:
1987:Generated_Source\PSoC5/CapSense_CSHL.c ****         uint32 tmp;
1988:Generated_Source\PSoC5/CapSense_CSHL.c ****         
1989:Generated_Source\PSoC5/CapSense_CSHL.c ****         /* IIR = 1/4 Current Value + 3/4 Previous Value */
1990:Generated_Source\PSoC5/CapSense_CSHL.c ****         tmp = (uint32)x1 + (uint32)x2;
 605              		.loc 1 1990 0
 606 0000 0844     		add	r0, r0, r1
 607              	.LVL71:
1991:Generated_Source\PSoC5/CapSense_CSHL.c ****         tmp += ((uint32)x2 << 1u);
 608              		.loc 1 1991 0
 609 0002 00EB4100 		add	r0, r0, r1, lsl #1
 610              	.LVL72:
1992:Generated_Source\PSoC5/CapSense_CSHL.c ****         tmp >>= 2u;
1993:Generated_Source\PSoC5/CapSense_CSHL.c ****         
1994:Generated_Source\PSoC5/CapSense_CSHL.c ****         return ((uint16) tmp);
1995:Generated_Source\PSoC5/CapSense_CSHL.c ****     }
 611              		.loc 1 1995 0
 612 0006 C0F38F00 		ubfx	r0, r0, #2, #16
 613              	.LVL73:
 614 000a 7047     		bx	lr
 615              		.cfi_endproc
 616              	.LFE11:
 617              		.size	CapSense_IIR4Filter, .-CapSense_IIR4Filter
 618              		.section	.text.CapSense_UpdateSensorBaseline,"ax",%progbits
 619              		.align	2
 620              		.global	CapSense_UpdateSensorBaseline
 621              		.thumb
ARM GAS  C:\Users\JEFFSN~1\AppData\Local\Temp\ccG3vFpC.s 			page 47


 622              		.thumb_func
 623              		.type	CapSense_UpdateSensorBaseline, %function
 624              	CapSense_UpdateSensorBaseline:
 625              	.LFB4:
 398:Generated_Source\PSoC5/CapSense_CSHL.c ****     uint32 calc;
 626              		.loc 1 398 0
 627              		.cfi_startproc
 628              		@ args = 0, pretend = 0, frame = 0
 629              		@ frame_needed = 0, uses_anonymous_args = 0
 630              	.LVL74:
 631 0000 F8B5     		push	{r3, r4, r5, r6, r7, lr}
 632              		.cfi_def_cfa_offset 24
 633              		.cfi_offset 3, -24
 634              		.cfi_offset 4, -20
 635              		.cfi_offset 5, -16
 636              		.cfi_offset 6, -12
 637              		.cfi_offset 7, -8
 638              		.cfi_offset 14, -4
 639 0002 0446     		mov	r4, r0
 402:Generated_Source\PSoC5/CapSense_CSHL.c ****     uint16 noiseThreshold = CapSense_noiseThreshold[widget];
 640              		.loc 1 402 0
 641 0004 274B     		ldr	r3, .L63
 642 0006 1A5C     		ldrb	r2, [r3, r0]	@ zero_extendqisi2
 643              	.LVL75:
 403:Generated_Source\PSoC5/CapSense_CSHL.c ****     
 644              		.loc 1 403 0
 645 0008 274B     		ldr	r3, .L63+4
 646 000a 03EB4203 		add	r3, r3, r2, lsl #1
 647 000e B3F88460 		ldrh	r6, [r3, #132]
 648              	.LVL76:
 432:Generated_Source\PSoC5/CapSense_CSHL.c ****         CapSense_rawFilterData1[sensor] = filteredRawData;
 649              		.loc 1 432 0
 650 0012 264D     		ldr	r5, .L63+8
 651 0014 35F81010 		ldrh	r1, [r5, r0, lsl #1]
 652 0018 254B     		ldr	r3, .L63+12
 653 001a 33F81000 		ldrh	r0, [r3, r0, lsl #1]
 654              	.LVL77:
 655 001e FFF7FEFF 		bl	CapSense_IIR4Filter
 656              	.LVL78:
 433:Generated_Source\PSoC5/CapSense_CSHL.c ****             
 657              		.loc 1 433 0
 658 0022 25F81400 		strh	r0, [r5, r4, lsl #1]	@ movhi
 458:Generated_Source\PSoC5/CapSense_CSHL.c ****     {
 659              		.loc 1 458 0
 660 0026 234B     		ldr	r3, .L63+16
 661 0028 33F81420 		ldrh	r2, [r3, r4, lsl #1]
 662 002c 9042     		cmp	r0, r2
 663 002e 03D3     		bcc	.L54
 460:Generated_Source\PSoC5/CapSense_CSHL.c ****         widget = 1u;    /* Positive difference - Calculate the Signal */
 664              		.loc 1 460 0
 665 0030 851A     		subs	r5, r0, r2
 666 0032 ADB2     		uxth	r5, r5
 667              	.LVL79:
 461:Generated_Source\PSoC5/CapSense_CSHL.c ****     }
 668              		.loc 1 461 0
 669 0034 0127     		movs	r7, #1
 670 0036 02E0     		b	.L55
ARM GAS  C:\Users\JEFFSN~1\AppData\Local\Temp\ccG3vFpC.s 			page 48


 671              	.LVL80:
 672              	.L54:
 465:Generated_Source\PSoC5/CapSense_CSHL.c ****         widget = 0u;    /* Negative difference - Do NOT calculate the Signal */
 673              		.loc 1 465 0
 674 0038 151A     		subs	r5, r2, r0
 675 003a ADB2     		uxth	r5, r5
 676              	.LVL81:
 466:Generated_Source\PSoC5/CapSense_CSHL.c ****     }
 677              		.loc 1 466 0
 678 003c 0027     		movs	r7, #0
 679              	.LVL82:
 680              	.L55:
 469:Generated_Source\PSoC5/CapSense_CSHL.c ****     {
 681              		.loc 1 469 0
 682 003e 87B9     		cbnz	r7, .L56
 469:Generated_Source\PSoC5/CapSense_CSHL.c ****     {
 683              		.loc 1 469 0 is_stmt 0 discriminator 1
 684 0040 142D     		cmp	r5, #20
 685 0042 0ED9     		bls	.L56
 471:Generated_Source\PSoC5/CapSense_CSHL.c ****         {
 686              		.loc 1 471 0 is_stmt 1
 687 0044 1C4B     		ldr	r3, .L63+20
 688 0046 1B5D     		ldrb	r3, [r3, r4]	@ zero_extendqisi2
 689 0048 042B     		cmp	r3, #4
 690 004a 06D9     		bls	.L57
 473:Generated_Source\PSoC5/CapSense_CSHL.c ****             CapSense_lowBaselineResetCnt[sensor] = 0u;
 691              		.loc 1 473 0
 692 004c 2046     		mov	r0, r4
 693              	.LVL83:
 694 004e FFF7FEFF 		bl	CapSense_BaseInit
 695              	.LVL84:
 474:Generated_Source\PSoC5/CapSense_CSHL.c ****         }
 696              		.loc 1 474 0
 697 0052 0022     		movs	r2, #0
 698 0054 184B     		ldr	r3, .L63+20
 699 0056 1A55     		strb	r2, [r3, r4]
 700 0058 17E0     		b	.L58
 701              	.LVL85:
 702              	.L57:
 478:Generated_Source\PSoC5/CapSense_CSHL.c ****         }
 703              		.loc 1 478 0
 704 005a 0133     		adds	r3, r3, #1
 705 005c 164A     		ldr	r2, .L63+20
 706 005e 1355     		strb	r3, [r2, r4]
 707 0060 13E0     		b	.L58
 708              	.L56:
 485:Generated_Source\PSoC5/CapSense_CSHL.c ****                  ((tempRaw < (uint16) CapSense_NEGATIVE_NOISE_THRESHOLD)
 709              		.loc 1 485 0
 710 0062 B542     		cmp	r5, r6
 711 0064 02D9     		bls	.L59
 485:Generated_Source\PSoC5/CapSense_CSHL.c ****                  ((tempRaw < (uint16) CapSense_NEGATIVE_NOISE_THRESHOLD)
 712              		.loc 1 485 0 is_stmt 0 discriminator 1
 713 0066 132D     		cmp	r5, #19
 714 0068 0FD8     		bhi	.L58
 487:Generated_Source\PSoC5/CapSense_CSHL.c ****             {
 715              		.loc 1 487 0 is_stmt 1
 716 006a 77B9     		cbnz	r7, .L58
ARM GAS  C:\Users\JEFFSN~1\AppData\Local\Temp\ccG3vFpC.s 			page 49


 717              	.L59:
 718              	.LVL86:
 492:Generated_Source\PSoC5/CapSense_CSHL.c **** 
 719              		.loc 1 492 0
 720 006c 1349     		ldr	r1, .L63+24
 721 006e 0B5D     		ldrb	r3, [r1, r4]	@ zero_extendqisi2
 722 0070 43EA0223 		orr	r3, r3, r2, lsl #8
 723              	.LVL87:
 495:Generated_Source\PSoC5/CapSense_CSHL.c **** 
 724              		.loc 1 495 0
 725 0074 1844     		add	r0, r0, r3
 726              	.LVL88:
 498:Generated_Source\PSoC5/CapSense_CSHL.c **** 
 727              		.loc 1 498 0
 728 0076 801A     		subs	r0, r0, r2
 729              	.LVL89:
 501:Generated_Source\PSoC5/CapSense_CSHL.c ****                 CapSense_sensorBaselineLow[sensor] = ((uint8) calc);
 730              		.loc 1 501 0
 731 0078 C0F30F22 		ubfx	r2, r0, #8, #16
 732 007c 0D4B     		ldr	r3, .L63+16
 733 007e 23F81420 		strh	r2, [r3, r4, lsl #1]	@ movhi
 502:Generated_Source\PSoC5/CapSense_CSHL.c **** 
 734              		.loc 1 502 0
 735 0082 0855     		strb	r0, [r1, r4]
 504:Generated_Source\PSoC5/CapSense_CSHL.c ****         #if (CapSense_AUTO_RESET == CapSense_AUTO_RESET_DISABLE)
 736              		.loc 1 504 0
 737 0084 0022     		movs	r2, #0
 738 0086 0C4B     		ldr	r3, .L63+20
 739 0088 1A55     		strb	r2, [r3, r4]
 740              	.LVL90:
 741              	.L58:
 511:Generated_Source\PSoC5/CapSense_CSHL.c ****     {
 742              		.loc 1 511 0
 743 008a B542     		cmp	r5, r6
 744 008c 04D9     		bls	.L60
 511:Generated_Source\PSoC5/CapSense_CSHL.c ****     {
 745              		.loc 1 511 0 is_stmt 0 discriminator 1
 746 008e 1FB1     		cbz	r7, .L60
 524:Generated_Source\PSoC5/CapSense_CSHL.c ****         #endif  /* (CapSense_SIGNAL_SIZE == CapSense_SIGNAL_SIZE_UINT8) */
 747              		.loc 1 524 0 is_stmt 1
 748 0090 0B4B     		ldr	r3, .L63+28
 749 0092 23F81450 		strh	r5, [r3, r4, lsl #1]	@ movhi
 750 0096 F8BD     		pop	{r3, r4, r5, r6, r7, pc}
 751              	.LVL91:
 752              	.L60:
 530:Generated_Source\PSoC5/CapSense_CSHL.c ****     }
 753              		.loc 1 530 0
 754 0098 0022     		movs	r2, #0
 755 009a 094B     		ldr	r3, .L63+28
 756 009c 23F81420 		strh	r2, [r3, r4, lsl #1]	@ movhi
 757 00a0 F8BD     		pop	{r3, r4, r5, r6, r7, pc}
 758              	.LVL92:
 759              	.L64:
 760 00a2 00BF     		.align	2
 761              	.L63:
 762 00a4 00000000 		.word	CapSense_widgetNumber
 763 00a8 00000000 		.word	.LANCHOR0
ARM GAS  C:\Users\JEFFSN~1\AppData\Local\Temp\ccG3vFpC.s 			page 50


 764 00ac 00000000 		.word	CapSense_rawFilterData1
 765 00b0 00000000 		.word	CapSense_sensorRaw
 766 00b4 00000000 		.word	CapSense_sensorBaseline
 767 00b8 00000000 		.word	CapSense_lowBaselineResetCnt
 768 00bc 00000000 		.word	CapSense_sensorBaselineLow
 769 00c0 00000000 		.word	CapSense_sensorSignal
 770              		.cfi_endproc
 771              	.LFE4:
 772              		.size	CapSense_UpdateSensorBaseline, .-CapSense_UpdateSensorBaseline
 773              		.section	.text.CapSense_UpdateEnabledBaselines,"ax",%progbits
 774              		.align	2
 775              		.global	CapSense_UpdateEnabledBaselines
 776              		.thumb
 777              		.thumb_func
 778              		.type	CapSense_UpdateEnabledBaselines, %function
 779              	CapSense_UpdateEnabledBaselines:
 780              	.LFB5:
 571:Generated_Source\PSoC5/CapSense_CSHL.c ****     uint8 i;
 781              		.loc 1 571 0
 782              		.cfi_startproc
 783              		@ args = 0, pretend = 0, frame = 0
 784              		@ frame_needed = 0, uses_anonymous_args = 0
 785 0000 10B5     		push	{r4, lr}
 786              		.cfi_def_cfa_offset 8
 787              		.cfi_offset 4, -8
 788              		.cfi_offset 14, -4
 789              	.LVL93:
 576:Generated_Source\PSoC5/CapSense_CSHL.c ****     {
 790              		.loc 1 576 0
 791 0002 0024     		movs	r4, #0
 792 0004 0DE0     		b	.L66
 793              	.LVL94:
 794              	.L68:
 578:Generated_Source\PSoC5/CapSense_CSHL.c ****         enMask = (uint8)(0x01u << (i & 0x07u));
 795              		.loc 1 578 0
 796 0006 E208     		lsrs	r2, r4, #3
 579:Generated_Source\PSoC5/CapSense_CSHL.c ****         if((CapSense_sensorEnableMask[pos] & enMask) != 0u)
 797              		.loc 1 579 0
 798 0008 04F00701 		and	r1, r4, #7
 799 000c 0123     		movs	r3, #1
 800 000e 8B40     		lsls	r3, r3, r1
 801              	.LVL95:
 580:Generated_Source\PSoC5/CapSense_CSHL.c ****         {
 802              		.loc 1 580 0
 803 0010 0549     		ldr	r1, .L70
 804 0012 8A5C     		ldrb	r2, [r1, r2]	@ zero_extendqisi2
 805 0014 1342     		tst	r3, r2
 806 0016 02D0     		beq	.L67
 582:Generated_Source\PSoC5/CapSense_CSHL.c ****         }
 807              		.loc 1 582 0
 808 0018 2046     		mov	r0, r4
 809 001a FFF7FEFF 		bl	CapSense_UpdateSensorBaseline
 810              	.LVL96:
 811              	.L67:
 576:Generated_Source\PSoC5/CapSense_CSHL.c ****     {
 812              		.loc 1 576 0 discriminator 2
 813 001e 0134     		adds	r4, r4, #1
ARM GAS  C:\Users\JEFFSN~1\AppData\Local\Temp\ccG3vFpC.s 			page 51


 814              	.LVL97:
 815 0020 E4B2     		uxtb	r4, r4
 816              	.LVL98:
 817              	.L66:
 576:Generated_Source\PSoC5/CapSense_CSHL.c ****     {
 818              		.loc 1 576 0 is_stmt 0 discriminator 1
 819 0022 192C     		cmp	r4, #25
 820 0024 EFD9     		bls	.L68
 585:Generated_Source\PSoC5/CapSense_CSHL.c **** 
 821              		.loc 1 585 0 is_stmt 1
 822 0026 10BD     		pop	{r4, pc}
 823              	.LVL99:
 824              	.L71:
 825              		.align	2
 826              	.L70:
 827 0028 00000000 		.word	CapSense_sensorEnableMask
 828              		.cfi_endproc
 829              	.LFE5:
 830              		.size	CapSense_UpdateEnabledBaselines, .-CapSense_UpdateEnabledBaselines
 831              		.global	CapSense_numberOfSensors
 832              		.global	CapSense_rawDataIndex
 833              		.global	CapSense_debounceCounter
 834              		.global	CapSense_debounce
 835              		.global	CapSense_hysteresis
 836              		.global	CapSense_noiseThreshold
 837              		.global	CapSense_fingerThreshold
 838              		.comm	CapSense_lowBaselineResetCnt,26,4
 839              		.comm	CapSense_sensorOnMask,4,4
 840              		.comm	CapSense_sensorSignal,52,4
 841              		.comm	CapSense_sensorBaselineLow,26,4
 842              		.comm	CapSense_sensorBaseline,52,4
 843              		.comm	CapSense_rawFilterData1,52,4
 844              		.section	.rodata
 845              		.align	2
 846              		.set	.LANCHOR2,. + 0
 847              		.type	CapSense_rawDataIndex, %object
 848              		.size	CapSense_rawDataIndex, 26
 849              	CapSense_rawDataIndex:
 850 0000 00       		.byte	0
 851 0001 01       		.byte	1
 852 0002 02       		.byte	2
 853 0003 03       		.byte	3
 854 0004 04       		.byte	4
 855 0005 05       		.byte	5
 856 0006 06       		.byte	6
 857 0007 07       		.byte	7
 858 0008 08       		.byte	8
 859 0009 09       		.byte	9
 860 000a 0A       		.byte	10
 861 000b 0B       		.byte	11
 862 000c 0C       		.byte	12
 863 000d 0D       		.byte	13
 864 000e 0E       		.byte	14
 865 000f 0F       		.byte	15
 866 0010 10       		.byte	16
 867 0011 11       		.byte	17
 868 0012 12       		.byte	18
ARM GAS  C:\Users\JEFFSN~1\AppData\Local\Temp\ccG3vFpC.s 			page 52


 869 0013 13       		.byte	19
 870 0014 14       		.byte	20
 871 0015 15       		.byte	21
 872 0016 16       		.byte	22
 873 0017 17       		.byte	23
 874 0018 18       		.byte	24
 875 0019 19       		.byte	25
 876 001a 0000     		.space	2
 877              		.type	CapSense_numberOfSensors, %object
 878              		.size	CapSense_numberOfSensors, 26
 879              	CapSense_numberOfSensors:
 880 001c 01       		.byte	1
 881 001d 01       		.byte	1
 882 001e 01       		.byte	1
 883 001f 01       		.byte	1
 884 0020 01       		.byte	1
 885 0021 01       		.byte	1
 886 0022 01       		.byte	1
 887 0023 01       		.byte	1
 888 0024 01       		.byte	1
 889 0025 01       		.byte	1
 890 0026 01       		.byte	1
 891 0027 01       		.byte	1
 892 0028 01       		.byte	1
 893 0029 01       		.byte	1
 894 002a 01       		.byte	1
 895 002b 01       		.byte	1
 896 002c 01       		.byte	1
 897 002d 01       		.byte	1
 898 002e 01       		.byte	1
 899 002f 01       		.byte	1
 900 0030 01       		.byte	1
 901 0031 01       		.byte	1
 902 0032 01       		.byte	1
 903 0033 01       		.byte	1
 904 0034 01       		.byte	1
 905 0035 01       		.byte	1
 906              		.data
 907              		.align	2
 908              		.set	.LANCHOR0,. + 0
 909              		.type	CapSense_debounce, %object
 910              		.size	CapSense_debounce, 26
 911              	CapSense_debounce:
 912 0000 03       		.byte	3
 913 0001 03       		.byte	3
 914 0002 05       		.byte	5
 915 0003 05       		.byte	5
 916 0004 05       		.byte	5
 917 0005 05       		.byte	5
 918 0006 05       		.byte	5
 919 0007 05       		.byte	5
 920 0008 05       		.byte	5
 921 0009 05       		.byte	5
 922 000a 05       		.byte	5
 923 000b 05       		.byte	5
 924 000c 05       		.byte	5
 925 000d 05       		.byte	5
ARM GAS  C:\Users\JEFFSN~1\AppData\Local\Temp\ccG3vFpC.s 			page 53


 926 000e 05       		.byte	5
 927 000f 05       		.byte	5
 928 0010 05       		.byte	5
 929 0011 05       		.byte	5
 930 0012 05       		.byte	5
 931 0013 05       		.byte	5
 932 0014 05       		.byte	5
 933 0015 05       		.byte	5
 934 0016 05       		.byte	5
 935 0017 05       		.byte	5
 936 0018 05       		.byte	5
 937 0019 05       		.byte	5
 938 001a 0000     		.space	2
 939              		.type	CapSense_fingerThreshold, %object
 940              		.size	CapSense_fingerThreshold, 52
 941              	CapSense_fingerThreshold:
 942 001c 1E00     		.short	30
 943 001e 1E00     		.short	30
 944 0020 1E00     		.short	30
 945 0022 1E00     		.short	30
 946 0024 1E00     		.short	30
 947 0026 1E00     		.short	30
 948 0028 1E00     		.short	30
 949 002a 1E00     		.short	30
 950 002c 1E00     		.short	30
 951 002e 1E00     		.short	30
 952 0030 1E00     		.short	30
 953 0032 1E00     		.short	30
 954 0034 1E00     		.short	30
 955 0036 1E00     		.short	30
 956 0038 1E00     		.short	30
 957 003a 1E00     		.short	30
 958 003c 1E00     		.short	30
 959 003e 1E00     		.short	30
 960 0040 1E00     		.short	30
 961 0042 1E00     		.short	30
 962 0044 1E00     		.short	30
 963 0046 1E00     		.short	30
 964 0048 1E00     		.short	30
 965 004a 1E00     		.short	30
 966 004c 1E00     		.short	30
 967 004e 1E00     		.short	30
 968              		.type	CapSense_hysteresis, %object
 969              		.size	CapSense_hysteresis, 52
 970              	CapSense_hysteresis:
 971 0050 0A00     		.short	10
 972 0052 0A00     		.short	10
 973 0054 0A00     		.short	10
 974 0056 0A00     		.short	10
 975 0058 0A00     		.short	10
 976 005a 0A00     		.short	10
 977 005c 0A00     		.short	10
 978 005e 0A00     		.short	10
 979 0060 0A00     		.short	10
 980 0062 0A00     		.short	10
 981 0064 0A00     		.short	10
 982 0066 0A00     		.short	10
ARM GAS  C:\Users\JEFFSN~1\AppData\Local\Temp\ccG3vFpC.s 			page 54


 983 0068 0A00     		.short	10
 984 006a 0A00     		.short	10
 985 006c 0A00     		.short	10
 986 006e 0A00     		.short	10
 987 0070 0A00     		.short	10
 988 0072 0A00     		.short	10
 989 0074 0A00     		.short	10
 990 0076 0A00     		.short	10
 991 0078 0A00     		.short	10
 992 007a 0A00     		.short	10
 993 007c 0A00     		.short	10
 994 007e 0A00     		.short	10
 995 0080 0A00     		.short	10
 996 0082 0A00     		.short	10
 997              		.type	CapSense_noiseThreshold, %object
 998              		.size	CapSense_noiseThreshold, 52
 999              	CapSense_noiseThreshold:
 1000 0084 0D00     		.short	13
 1001 0086 0D00     		.short	13
 1002 0088 0D00     		.short	13
 1003 008a 0D00     		.short	13
 1004 008c 0D00     		.short	13
 1005 008e 0D00     		.short	13
 1006 0090 0D00     		.short	13
 1007 0092 0D00     		.short	13
 1008 0094 0D00     		.short	13
 1009 0096 0D00     		.short	13
 1010 0098 0D00     		.short	13
 1011 009a 0D00     		.short	13
 1012 009c 0D00     		.short	13
 1013 009e 0D00     		.short	13
 1014 00a0 0D00     		.short	13
 1015 00a2 0D00     		.short	13
 1016 00a4 0D00     		.short	13
 1017 00a6 0D00     		.short	13
 1018 00a8 0D00     		.short	13
 1019 00aa 0D00     		.short	13
 1020 00ac 0D00     		.short	13
 1021 00ae 0D00     		.short	13
 1022 00b0 0D00     		.short	13
 1023 00b2 0D00     		.short	13
 1024 00b4 0D00     		.short	13
 1025 00b6 0D00     		.short	13
 1026              		.bss
 1027              		.align	2
 1028              		.set	.LANCHOR1,. + 0
 1029              		.type	CapSense_debounceCounter, %object
 1030              		.size	CapSense_debounceCounter, 27
 1031              	CapSense_debounceCounter:
 1032 0000 00000000 		.space	27
 1032      00000000 
 1032      00000000 
 1032      00000000 
 1032      00000000 
 1033              		.text
 1034              	.Letext0:
 1035              		.file 2 "Generated_Source\\PSoC5\\cytypes.h"
ARM GAS  C:\Users\JEFFSN~1\AppData\Local\Temp\ccG3vFpC.s 			page 55


 1036              		.file 3 "Generated_Source\\PSoC5\\CapSense.h"
 1037              		.file 4 "Generated_Source\\PSoC5\\CapSense_CSHL.h"