ARM GAS  C:\Users\JEFFSN~1\AppData\Local\Temp\ccqQhWCD.s 			page 1


   1              		.syntax unified
   2              		.cpu cortex-m3
   3              		.fpu softvfp
   4              		.eabi_attribute 20, 1
   5              		.eabi_attribute 21, 1
   6              		.eabi_attribute 23, 3
   7              		.eabi_attribute 24, 1
   8              		.eabi_attribute 25, 1
   9              		.eabi_attribute 26, 1
  10              		.eabi_attribute 30, 1
  11              		.eabi_attribute 34, 1
  12              		.eabi_attribute 18, 4
  13              		.thumb
  14              		.syntax unified
  15              		.file	"CapSense_IdacCH0.c"
  16              		.text
  17              	.Ltext0:
  18              		.cfi_sections	.debug_frame
  19              		.section	.text.CapSense_IdacCH0_Enable,"ax",%progbits
  20              		.align	2
  21              		.global	CapSense_IdacCH0_Enable
  22              		.thumb
  23              		.thumb_func
  24              		.type	CapSense_IdacCH0_Enable, %function
  25              	CapSense_IdacCH0_Enable:
  26              	.LFB1:
  27              		.file 1 "Generated_Source\\PSoC5\\CapSense_IdacCH0.c"
   1:Generated_Source\PSoC5/CapSense_IdacCH0.c **** /*******************************************************************************
   2:Generated_Source\PSoC5/CapSense_IdacCH0.c **** * File Name: CapSense_IdacCH0.c
   3:Generated_Source\PSoC5/CapSense_IdacCH0.c **** * Version 2.0
   4:Generated_Source\PSoC5/CapSense_IdacCH0.c **** *
   5:Generated_Source\PSoC5/CapSense_IdacCH0.c **** * Description:
   6:Generated_Source\PSoC5/CapSense_IdacCH0.c **** *  This file provides the source code to the API for the 8-bit Current 
   7:Generated_Source\PSoC5/CapSense_IdacCH0.c **** *  DAC (IDAC8) User Module.
   8:Generated_Source\PSoC5/CapSense_IdacCH0.c **** *
   9:Generated_Source\PSoC5/CapSense_IdacCH0.c **** * Note:
  10:Generated_Source\PSoC5/CapSense_IdacCH0.c **** *  None
  11:Generated_Source\PSoC5/CapSense_IdacCH0.c **** *
  12:Generated_Source\PSoC5/CapSense_IdacCH0.c **** ********************************************************************************
  13:Generated_Source\PSoC5/CapSense_IdacCH0.c **** * Copyright 2008-2012, Cypress Semiconductor Corporation.  All rights reserved.
  14:Generated_Source\PSoC5/CapSense_IdacCH0.c **** * You may use this file only in accordance with the license, terms, conditions, 
  15:Generated_Source\PSoC5/CapSense_IdacCH0.c **** * disclaimers, and limitations in the end user license agreement accompanying 
  16:Generated_Source\PSoC5/CapSense_IdacCH0.c **** * the software package with which this file was provided.
  17:Generated_Source\PSoC5/CapSense_IdacCH0.c **** *******************************************************************************/
  18:Generated_Source\PSoC5/CapSense_IdacCH0.c **** 
  19:Generated_Source\PSoC5/CapSense_IdacCH0.c **** #include "cytypes.h"
  20:Generated_Source\PSoC5/CapSense_IdacCH0.c **** #include "CapSense_IdacCH0.h"   
  21:Generated_Source\PSoC5/CapSense_IdacCH0.c **** 
  22:Generated_Source\PSoC5/CapSense_IdacCH0.c **** #if (CY_PSOC5A)
  23:Generated_Source\PSoC5/CapSense_IdacCH0.c ****     #include <CyLib.h>
  24:Generated_Source\PSoC5/CapSense_IdacCH0.c **** #endif /* CY_PSOC5A */
  25:Generated_Source\PSoC5/CapSense_IdacCH0.c **** 
  26:Generated_Source\PSoC5/CapSense_IdacCH0.c **** 
  27:Generated_Source\PSoC5/CapSense_IdacCH0.c **** uint8 CapSense_IdacCH0_initVar = 0u;
  28:Generated_Source\PSoC5/CapSense_IdacCH0.c **** 
  29:Generated_Source\PSoC5/CapSense_IdacCH0.c **** 
  30:Generated_Source\PSoC5/CapSense_IdacCH0.c **** #if (CY_PSOC5A)
ARM GAS  C:\Users\JEFFSN~1\AppData\Local\Temp\ccqQhWCD.s 			page 2


  31:Generated_Source\PSoC5/CapSense_IdacCH0.c ****     static CapSense_IdacCH0_LOWPOWER_BACKUP_STRUCT  CapSense_IdacCH0_lowPowerBackup;
  32:Generated_Source\PSoC5/CapSense_IdacCH0.c **** #endif /* CY_PSOC5A */
  33:Generated_Source\PSoC5/CapSense_IdacCH0.c **** 
  34:Generated_Source\PSoC5/CapSense_IdacCH0.c **** /* Variable to decide whether or not to restore control register in Enable()
  35:Generated_Source\PSoC5/CapSense_IdacCH0.c ****    API. This valid only for PSoC5A */
  36:Generated_Source\PSoC5/CapSense_IdacCH0.c **** #if (CY_PSOC5A)
  37:Generated_Source\PSoC5/CapSense_IdacCH0.c ****     static uint8 CapSense_IdacCH0_restoreReg = 0u;
  38:Generated_Source\PSoC5/CapSense_IdacCH0.c **** #endif /* CY_PSOC5A */
  39:Generated_Source\PSoC5/CapSense_IdacCH0.c **** 
  40:Generated_Source\PSoC5/CapSense_IdacCH0.c **** 
  41:Generated_Source\PSoC5/CapSense_IdacCH0.c **** /*******************************************************************************
  42:Generated_Source\PSoC5/CapSense_IdacCH0.c **** * Function Name: CapSense_IdacCH0_Init
  43:Generated_Source\PSoC5/CapSense_IdacCH0.c **** ********************************************************************************
  44:Generated_Source\PSoC5/CapSense_IdacCH0.c **** * Summary:
  45:Generated_Source\PSoC5/CapSense_IdacCH0.c **** *  Initialize to the schematic state.
  46:Generated_Source\PSoC5/CapSense_IdacCH0.c **** * 
  47:Generated_Source\PSoC5/CapSense_IdacCH0.c **** * Parameters:
  48:Generated_Source\PSoC5/CapSense_IdacCH0.c **** *  void:
  49:Generated_Source\PSoC5/CapSense_IdacCH0.c **** *
  50:Generated_Source\PSoC5/CapSense_IdacCH0.c **** * Return:
  51:Generated_Source\PSoC5/CapSense_IdacCH0.c **** *  (void)
  52:Generated_Source\PSoC5/CapSense_IdacCH0.c **** *
  53:Generated_Source\PSoC5/CapSense_IdacCH0.c **** * Theory:
  54:Generated_Source\PSoC5/CapSense_IdacCH0.c **** *
  55:Generated_Source\PSoC5/CapSense_IdacCH0.c **** * Side Effects:
  56:Generated_Source\PSoC5/CapSense_IdacCH0.c **** *
  57:Generated_Source\PSoC5/CapSense_IdacCH0.c **** *******************************************************************************/
  58:Generated_Source\PSoC5/CapSense_IdacCH0.c **** void CapSense_IdacCH0_Init(void) 
  59:Generated_Source\PSoC5/CapSense_IdacCH0.c **** {
  60:Generated_Source\PSoC5/CapSense_IdacCH0.c ****     CapSense_IdacCH0_CR0 = (CapSense_IdacCH0_MODE_I | CapSense_IdacCH0_DEFAULT_RANGE );
  61:Generated_Source\PSoC5/CapSense_IdacCH0.c **** 
  62:Generated_Source\PSoC5/CapSense_IdacCH0.c ****     /* Set default data source */
  63:Generated_Source\PSoC5/CapSense_IdacCH0.c ****     #if(CapSense_IdacCH0_DEFAULT_DATA_SRC != 0u )    
  64:Generated_Source\PSoC5/CapSense_IdacCH0.c ****         CapSense_IdacCH0_CR1 = (CapSense_IdacCH0_DEFAULT_CNTL | CapSense_IdacCH0_DACBUS_ENABLE);
  65:Generated_Source\PSoC5/CapSense_IdacCH0.c ****     #else
  66:Generated_Source\PSoC5/CapSense_IdacCH0.c ****         CapSense_IdacCH0_CR1 = (CapSense_IdacCH0_DEFAULT_CNTL | CapSense_IdacCH0_DACBUS_DISABLE);
  67:Generated_Source\PSoC5/CapSense_IdacCH0.c ****     #endif /* (CapSense_IdacCH0_DEFAULT_DATA_SRC != 0u ) */
  68:Generated_Source\PSoC5/CapSense_IdacCH0.c ****     
  69:Generated_Source\PSoC5/CapSense_IdacCH0.c ****     /*Controls polarity from UDB Control*/
  70:Generated_Source\PSoC5/CapSense_IdacCH0.c ****     #if(CapSense_IdacCH0_DEFAULT_POLARITY == CapSense_IdacCH0_HARDWARE_CONTROLLED)
  71:Generated_Source\PSoC5/CapSense_IdacCH0.c ****         CapSense_IdacCH0_CR1 |= CapSense_IdacCH0_IDIR_SRC_UDB;
  72:Generated_Source\PSoC5/CapSense_IdacCH0.c ****     #else
  73:Generated_Source\PSoC5/CapSense_IdacCH0.c ****         CapSense_IdacCH0_CR1 |= CapSense_IdacCH0_DEFAULT_POLARITY;
  74:Generated_Source\PSoC5/CapSense_IdacCH0.c ****     #endif/* (CapSense_IdacCH0_DEFAULT_POLARITY == CapSense_IdacCH0_HARDWARE_CONTROLLED) */
  75:Generated_Source\PSoC5/CapSense_IdacCH0.c ****     /*Controls Current Source from UDB Control*/
  76:Generated_Source\PSoC5/CapSense_IdacCH0.c ****     #if(CapSense_IdacCH0_HARDWARE_ENABLE != 0u ) 
  77:Generated_Source\PSoC5/CapSense_IdacCH0.c ****         CapSense_IdacCH0_CR1 |= CapSense_IdacCH0_IDIR_CTL_UDB;
  78:Generated_Source\PSoC5/CapSense_IdacCH0.c ****     #endif /* (CapSense_IdacCH0_HARDWARE_ENABLE != 0u ) */ 
  79:Generated_Source\PSoC5/CapSense_IdacCH0.c ****     
  80:Generated_Source\PSoC5/CapSense_IdacCH0.c ****     /* Set default strobe mode */
  81:Generated_Source\PSoC5/CapSense_IdacCH0.c ****     #if(CapSense_IdacCH0_DEFAULT_STRB != 0u)
  82:Generated_Source\PSoC5/CapSense_IdacCH0.c ****         CapSense_IdacCH0_Strobe |= CapSense_IdacCH0_STRB_EN;
  83:Generated_Source\PSoC5/CapSense_IdacCH0.c ****     #endif /* (CapSense_IdacCH0_DEFAULT_STRB != 0u) */
  84:Generated_Source\PSoC5/CapSense_IdacCH0.c ****     
  85:Generated_Source\PSoC5/CapSense_IdacCH0.c ****     /* Set default speed */
  86:Generated_Source\PSoC5/CapSense_IdacCH0.c ****     CapSense_IdacCH0_SetSpeed(CapSense_IdacCH0_DEFAULT_SPEED);
  87:Generated_Source\PSoC5/CapSense_IdacCH0.c ****     
ARM GAS  C:\Users\JEFFSN~1\AppData\Local\Temp\ccqQhWCD.s 			page 3


  88:Generated_Source\PSoC5/CapSense_IdacCH0.c ****     /* Set proper DAC trim */
  89:Generated_Source\PSoC5/CapSense_IdacCH0.c ****     CapSense_IdacCH0_DacTrim();
  90:Generated_Source\PSoC5/CapSense_IdacCH0.c ****     
  91:Generated_Source\PSoC5/CapSense_IdacCH0.c **** }
  92:Generated_Source\PSoC5/CapSense_IdacCH0.c **** 
  93:Generated_Source\PSoC5/CapSense_IdacCH0.c **** 
  94:Generated_Source\PSoC5/CapSense_IdacCH0.c **** /*******************************************************************************
  95:Generated_Source\PSoC5/CapSense_IdacCH0.c **** * Function Name: CapSense_IdacCH0_Enable
  96:Generated_Source\PSoC5/CapSense_IdacCH0.c **** ********************************************************************************
  97:Generated_Source\PSoC5/CapSense_IdacCH0.c **** * Summary:
  98:Generated_Source\PSoC5/CapSense_IdacCH0.c **** *  Enable the IDAC8
  99:Generated_Source\PSoC5/CapSense_IdacCH0.c **** * 
 100:Generated_Source\PSoC5/CapSense_IdacCH0.c **** * Parameters:
 101:Generated_Source\PSoC5/CapSense_IdacCH0.c **** *  void:
 102:Generated_Source\PSoC5/CapSense_IdacCH0.c **** *
 103:Generated_Source\PSoC5/CapSense_IdacCH0.c **** * Return:
 104:Generated_Source\PSoC5/CapSense_IdacCH0.c **** *  (void)
 105:Generated_Source\PSoC5/CapSense_IdacCH0.c **** *
 106:Generated_Source\PSoC5/CapSense_IdacCH0.c **** * Theory:
 107:Generated_Source\PSoC5/CapSense_IdacCH0.c **** *
 108:Generated_Source\PSoC5/CapSense_IdacCH0.c **** * Side Effects:
 109:Generated_Source\PSoC5/CapSense_IdacCH0.c **** *
 110:Generated_Source\PSoC5/CapSense_IdacCH0.c **** *******************************************************************************/
 111:Generated_Source\PSoC5/CapSense_IdacCH0.c **** void CapSense_IdacCH0_Enable(void) 
 112:Generated_Source\PSoC5/CapSense_IdacCH0.c **** {
  28              		.loc 1 112 0
  29              		.cfi_startproc
  30              		@ args = 0, pretend = 0, frame = 0
  31              		@ frame_needed = 0, uses_anonymous_args = 0
  32              		@ link register save eliminated.
 113:Generated_Source\PSoC5/CapSense_IdacCH0.c ****     CapSense_IdacCH0_PWRMGR |= CapSense_IdacCH0_ACT_PWR_EN;
  33              		.loc 1 113 0
  34 0000 054A     		ldr	r2, .L2
  35 0002 1378     		ldrb	r3, [r2]	@ zero_extendqisi2
  36 0004 43F00103 		orr	r3, r3, #1
  37 0008 1370     		strb	r3, [r2]
 114:Generated_Source\PSoC5/CapSense_IdacCH0.c ****     CapSense_IdacCH0_STBY_PWRMGR |= CapSense_IdacCH0_STBY_PWR_EN;
  38              		.loc 1 114 0
  39 000a 1032     		adds	r2, r2, #16
  40 000c 1378     		ldrb	r3, [r2]	@ zero_extendqisi2
  41 000e 43F00103 		orr	r3, r3, #1
  42 0012 1370     		strb	r3, [r2]
  43 0014 7047     		bx	lr
  44              	.L3:
  45 0016 00BF     		.align	2
  46              	.L2:
  47 0018 A8430040 		.word	1073759144
  48              		.cfi_endproc
  49              	.LFE1:
  50              		.size	CapSense_IdacCH0_Enable, .-CapSense_IdacCH0_Enable
  51              		.section	.text.CapSense_IdacCH0_Stop,"ax",%progbits
  52              		.align	2
  53              		.global	CapSense_IdacCH0_Stop
  54              		.thumb
  55              		.thumb_func
  56              		.type	CapSense_IdacCH0_Stop, %function
  57              	CapSense_IdacCH0_Stop:
ARM GAS  C:\Users\JEFFSN~1\AppData\Local\Temp\ccqQhWCD.s 			page 4


  58              	.LFB3:
 115:Generated_Source\PSoC5/CapSense_IdacCH0.c **** 
 116:Generated_Source\PSoC5/CapSense_IdacCH0.c ****     /* This is to restore the value of register CR0 which is saved 
 117:Generated_Source\PSoC5/CapSense_IdacCH0.c ****       in prior to the modification in stop() API */
 118:Generated_Source\PSoC5/CapSense_IdacCH0.c ****     #if (CY_PSOC5A)
 119:Generated_Source\PSoC5/CapSense_IdacCH0.c ****         if(CapSense_IdacCH0_restoreReg == 1u)
 120:Generated_Source\PSoC5/CapSense_IdacCH0.c ****         {
 121:Generated_Source\PSoC5/CapSense_IdacCH0.c ****             CapSense_IdacCH0_CR0 = CapSense_IdacCH0_lowPowerBackup.DACCR0Reg;
 122:Generated_Source\PSoC5/CapSense_IdacCH0.c **** 
 123:Generated_Source\PSoC5/CapSense_IdacCH0.c ****             /* Clear the flag */
 124:Generated_Source\PSoC5/CapSense_IdacCH0.c ****             CapSense_IdacCH0_restoreReg = 0u;
 125:Generated_Source\PSoC5/CapSense_IdacCH0.c ****         }
 126:Generated_Source\PSoC5/CapSense_IdacCH0.c ****     #endif /* CY_PSOC5A */
 127:Generated_Source\PSoC5/CapSense_IdacCH0.c **** }
 128:Generated_Source\PSoC5/CapSense_IdacCH0.c **** 
 129:Generated_Source\PSoC5/CapSense_IdacCH0.c **** 
 130:Generated_Source\PSoC5/CapSense_IdacCH0.c **** /*******************************************************************************
 131:Generated_Source\PSoC5/CapSense_IdacCH0.c **** * Function Name: CapSense_IdacCH0_Start
 132:Generated_Source\PSoC5/CapSense_IdacCH0.c **** ********************************************************************************
 133:Generated_Source\PSoC5/CapSense_IdacCH0.c **** * Summary:
 134:Generated_Source\PSoC5/CapSense_IdacCH0.c **** *  Set power level then turn on IDAC8.
 135:Generated_Source\PSoC5/CapSense_IdacCH0.c **** *
 136:Generated_Source\PSoC5/CapSense_IdacCH0.c **** * Parameters:  
 137:Generated_Source\PSoC5/CapSense_IdacCH0.c **** *  power: Sets power level between off (0) and (3) high power
 138:Generated_Source\PSoC5/CapSense_IdacCH0.c **** *
 139:Generated_Source\PSoC5/CapSense_IdacCH0.c **** * Return:
 140:Generated_Source\PSoC5/CapSense_IdacCH0.c **** *  (void)
 141:Generated_Source\PSoC5/CapSense_IdacCH0.c **** *
 142:Generated_Source\PSoC5/CapSense_IdacCH0.c **** * Global variables:
 143:Generated_Source\PSoC5/CapSense_IdacCH0.c **** *  CapSense_IdacCH0_initVar: Is modified when this function is called for 
 144:Generated_Source\PSoC5/CapSense_IdacCH0.c **** *   the first time. Is used to ensure that initialization happens only once.
 145:Generated_Source\PSoC5/CapSense_IdacCH0.c **** *
 146:Generated_Source\PSoC5/CapSense_IdacCH0.c **** *******************************************************************************/
 147:Generated_Source\PSoC5/CapSense_IdacCH0.c **** void CapSense_IdacCH0_Start(void) 
 148:Generated_Source\PSoC5/CapSense_IdacCH0.c **** {
 149:Generated_Source\PSoC5/CapSense_IdacCH0.c ****     /* Hardware initiazation only needs to occur the first time */
 150:Generated_Source\PSoC5/CapSense_IdacCH0.c ****     if ( CapSense_IdacCH0_initVar == 0u)  
 151:Generated_Source\PSoC5/CapSense_IdacCH0.c ****     {
 152:Generated_Source\PSoC5/CapSense_IdacCH0.c ****         CapSense_IdacCH0_Init();
 153:Generated_Source\PSoC5/CapSense_IdacCH0.c ****         
 154:Generated_Source\PSoC5/CapSense_IdacCH0.c ****         CapSense_IdacCH0_initVar = 1u;
 155:Generated_Source\PSoC5/CapSense_IdacCH0.c ****     }
 156:Generated_Source\PSoC5/CapSense_IdacCH0.c ****    
 157:Generated_Source\PSoC5/CapSense_IdacCH0.c ****     /* Enable power to DAC */
 158:Generated_Source\PSoC5/CapSense_IdacCH0.c ****     CapSense_IdacCH0_Enable();
 159:Generated_Source\PSoC5/CapSense_IdacCH0.c **** 
 160:Generated_Source\PSoC5/CapSense_IdacCH0.c ****     /* Set default value */
 161:Generated_Source\PSoC5/CapSense_IdacCH0.c ****     CapSense_IdacCH0_SetValue(CapSense_IdacCH0_DEFAULT_DATA);
 162:Generated_Source\PSoC5/CapSense_IdacCH0.c **** 
 163:Generated_Source\PSoC5/CapSense_IdacCH0.c **** }
 164:Generated_Source\PSoC5/CapSense_IdacCH0.c **** 
 165:Generated_Source\PSoC5/CapSense_IdacCH0.c **** 
 166:Generated_Source\PSoC5/CapSense_IdacCH0.c **** /*******************************************************************************
 167:Generated_Source\PSoC5/CapSense_IdacCH0.c **** * Function Name: CapSense_IdacCH0_Stop
 168:Generated_Source\PSoC5/CapSense_IdacCH0.c **** ********************************************************************************
 169:Generated_Source\PSoC5/CapSense_IdacCH0.c **** * Summary:
 170:Generated_Source\PSoC5/CapSense_IdacCH0.c **** *  Powers down IDAC8 to lowest power state.
ARM GAS  C:\Users\JEFFSN~1\AppData\Local\Temp\ccqQhWCD.s 			page 5


 171:Generated_Source\PSoC5/CapSense_IdacCH0.c **** *
 172:Generated_Source\PSoC5/CapSense_IdacCH0.c **** * Parameters:
 173:Generated_Source\PSoC5/CapSense_IdacCH0.c **** *  (void)
 174:Generated_Source\PSoC5/CapSense_IdacCH0.c **** *
 175:Generated_Source\PSoC5/CapSense_IdacCH0.c **** * Return:
 176:Generated_Source\PSoC5/CapSense_IdacCH0.c **** *  (void)
 177:Generated_Source\PSoC5/CapSense_IdacCH0.c **** *
 178:Generated_Source\PSoC5/CapSense_IdacCH0.c **** * Theory:
 179:Generated_Source\PSoC5/CapSense_IdacCH0.c **** *
 180:Generated_Source\PSoC5/CapSense_IdacCH0.c **** * Side Effects:
 181:Generated_Source\PSoC5/CapSense_IdacCH0.c **** *
 182:Generated_Source\PSoC5/CapSense_IdacCH0.c **** *******************************************************************************/
 183:Generated_Source\PSoC5/CapSense_IdacCH0.c **** void CapSense_IdacCH0_Stop(void) 
 184:Generated_Source\PSoC5/CapSense_IdacCH0.c **** {
  59              		.loc 1 184 0
  60              		.cfi_startproc
  61              		@ args = 0, pretend = 0, frame = 0
  62              		@ frame_needed = 0, uses_anonymous_args = 0
  63              		@ link register save eliminated.
 185:Generated_Source\PSoC5/CapSense_IdacCH0.c ****     /* Disble power to DAC */
 186:Generated_Source\PSoC5/CapSense_IdacCH0.c ****     CapSense_IdacCH0_PWRMGR &= (uint8)(~CapSense_IdacCH0_ACT_PWR_EN);
  64              		.loc 1 186 0
  65 0000 054A     		ldr	r2, .L5
  66 0002 1378     		ldrb	r3, [r2]	@ zero_extendqisi2
  67 0004 03F0FE03 		and	r3, r3, #254
  68 0008 1370     		strb	r3, [r2]
 187:Generated_Source\PSoC5/CapSense_IdacCH0.c ****     CapSense_IdacCH0_STBY_PWRMGR &= (uint8)(~CapSense_IdacCH0_STBY_PWR_EN);
  69              		.loc 1 187 0
  70 000a 1032     		adds	r2, r2, #16
  71 000c 1378     		ldrb	r3, [r2]	@ zero_extendqisi2
  72 000e 03F0FE03 		and	r3, r3, #254
  73 0012 1370     		strb	r3, [r2]
  74 0014 7047     		bx	lr
  75              	.L6:
  76 0016 00BF     		.align	2
  77              	.L5:
  78 0018 A8430040 		.word	1073759144
  79              		.cfi_endproc
  80              	.LFE3:
  81              		.size	CapSense_IdacCH0_Stop, .-CapSense_IdacCH0_Stop
  82              		.section	.text.CapSense_IdacCH0_SetSpeed,"ax",%progbits
  83              		.align	2
  84              		.global	CapSense_IdacCH0_SetSpeed
  85              		.thumb
  86              		.thumb_func
  87              		.type	CapSense_IdacCH0_SetSpeed, %function
  88              	CapSense_IdacCH0_SetSpeed:
  89              	.LFB4:
 188:Generated_Source\PSoC5/CapSense_IdacCH0.c ****     
 189:Generated_Source\PSoC5/CapSense_IdacCH0.c ****     #if (CY_PSOC5A)
 190:Generated_Source\PSoC5/CapSense_IdacCH0.c ****     
 191:Generated_Source\PSoC5/CapSense_IdacCH0.c ****         /* Set the global variable  */
 192:Generated_Source\PSoC5/CapSense_IdacCH0.c ****         CapSense_IdacCH0_restoreReg = 1u;
 193:Generated_Source\PSoC5/CapSense_IdacCH0.c **** 
 194:Generated_Source\PSoC5/CapSense_IdacCH0.c ****         /* Save the control register and then Clear it. */
 195:Generated_Source\PSoC5/CapSense_IdacCH0.c ****         CapSense_IdacCH0_lowPowerBackup.DACCR0Reg = CapSense_IdacCH0_CR0;
 196:Generated_Source\PSoC5/CapSense_IdacCH0.c ****         CapSense_IdacCH0_CR0 = (CapSense_IdacCH0_MODE_I | CapSense_IdacCH0_RANGE_3 | CapSense_IdacC
ARM GAS  C:\Users\JEFFSN~1\AppData\Local\Temp\ccqQhWCD.s 			page 6


 197:Generated_Source\PSoC5/CapSense_IdacCH0.c ****     #endif /* CY_PSOC5A */
 198:Generated_Source\PSoC5/CapSense_IdacCH0.c **** }
 199:Generated_Source\PSoC5/CapSense_IdacCH0.c **** 
 200:Generated_Source\PSoC5/CapSense_IdacCH0.c **** 
 201:Generated_Source\PSoC5/CapSense_IdacCH0.c **** /*******************************************************************************
 202:Generated_Source\PSoC5/CapSense_IdacCH0.c **** * Function Name: CapSense_IdacCH0_SetSpeed
 203:Generated_Source\PSoC5/CapSense_IdacCH0.c **** ********************************************************************************
 204:Generated_Source\PSoC5/CapSense_IdacCH0.c **** * Summary:
 205:Generated_Source\PSoC5/CapSense_IdacCH0.c **** *  Set DAC speed
 206:Generated_Source\PSoC5/CapSense_IdacCH0.c **** *
 207:Generated_Source\PSoC5/CapSense_IdacCH0.c **** * Parameters:
 208:Generated_Source\PSoC5/CapSense_IdacCH0.c **** *  power: Sets speed value
 209:Generated_Source\PSoC5/CapSense_IdacCH0.c **** *
 210:Generated_Source\PSoC5/CapSense_IdacCH0.c **** * Return:
 211:Generated_Source\PSoC5/CapSense_IdacCH0.c **** *  (void)
 212:Generated_Source\PSoC5/CapSense_IdacCH0.c **** *
 213:Generated_Source\PSoC5/CapSense_IdacCH0.c **** * Theory:
 214:Generated_Source\PSoC5/CapSense_IdacCH0.c **** *
 215:Generated_Source\PSoC5/CapSense_IdacCH0.c **** * Side Effects:
 216:Generated_Source\PSoC5/CapSense_IdacCH0.c **** *
 217:Generated_Source\PSoC5/CapSense_IdacCH0.c **** *******************************************************************************/
 218:Generated_Source\PSoC5/CapSense_IdacCH0.c **** void CapSense_IdacCH0_SetSpeed(uint8 speed) 
 219:Generated_Source\PSoC5/CapSense_IdacCH0.c **** {
  90              		.loc 1 219 0
  91              		.cfi_startproc
  92              		@ args = 0, pretend = 0, frame = 0
  93              		@ frame_needed = 0, uses_anonymous_args = 0
  94              		@ link register save eliminated.
  95              	.LVL0:
 220:Generated_Source\PSoC5/CapSense_IdacCH0.c ****     /* Clear power mask then write in new value */
 221:Generated_Source\PSoC5/CapSense_IdacCH0.c ****     CapSense_IdacCH0_CR0 &= (uint8)(~CapSense_IdacCH0_HS_MASK);
  96              		.loc 1 221 0
  97 0000 054B     		ldr	r3, .L8
  98 0002 1A78     		ldrb	r2, [r3]	@ zero_extendqisi2
  99 0004 02F0FD02 		and	r2, r2, #253
 100 0008 1A70     		strb	r2, [r3]
 222:Generated_Source\PSoC5/CapSense_IdacCH0.c ****     CapSense_IdacCH0_CR0 |=  ( speed & CapSense_IdacCH0_HS_MASK);
 101              		.loc 1 222 0
 102 000a 1A78     		ldrb	r2, [r3]	@ zero_extendqisi2
 103 000c 00F00200 		and	r0, r0, #2
 104              	.LVL1:
 105 0010 1043     		orrs	r0, r0, r2
 106 0012 1870     		strb	r0, [r3]
 107 0014 7047     		bx	lr
 108              	.L9:
 109 0016 00BF     		.align	2
 110              	.L8:
 111 0018 20580040 		.word	1073764384
 112              		.cfi_endproc
 113              	.LFE4:
 114              		.size	CapSense_IdacCH0_SetSpeed, .-CapSense_IdacCH0_SetSpeed
 115              		.section	.text.CapSense_IdacCH0_SetValue,"ax",%progbits
 116              		.align	2
 117              		.global	CapSense_IdacCH0_SetValue
 118              		.thumb
 119              		.thumb_func
 120              		.type	CapSense_IdacCH0_SetValue, %function
ARM GAS  C:\Users\JEFFSN~1\AppData\Local\Temp\ccqQhWCD.s 			page 7


 121              	CapSense_IdacCH0_SetValue:
 122              	.LFB7:
 223:Generated_Source\PSoC5/CapSense_IdacCH0.c **** }
 224:Generated_Source\PSoC5/CapSense_IdacCH0.c **** 
 225:Generated_Source\PSoC5/CapSense_IdacCH0.c **** 
 226:Generated_Source\PSoC5/CapSense_IdacCH0.c **** /*******************************************************************************
 227:Generated_Source\PSoC5/CapSense_IdacCH0.c **** * Function Name: CapSense_IdacCH0_SetPolarity
 228:Generated_Source\PSoC5/CapSense_IdacCH0.c **** ********************************************************************************
 229:Generated_Source\PSoC5/CapSense_IdacCH0.c **** * Summary:
 230:Generated_Source\PSoC5/CapSense_IdacCH0.c **** *  Sets IDAC to Sink or Source current.
 231:Generated_Source\PSoC5/CapSense_IdacCH0.c **** *  
 232:Generated_Source\PSoC5/CapSense_IdacCH0.c **** * Parameters:
 233:Generated_Source\PSoC5/CapSense_IdacCH0.c **** *  Polarity: Sets the IDAC to Sink or Source 
 234:Generated_Source\PSoC5/CapSense_IdacCH0.c **** *  0x00 - Source
 235:Generated_Source\PSoC5/CapSense_IdacCH0.c **** *  0x04 - Sink
 236:Generated_Source\PSoC5/CapSense_IdacCH0.c **** *
 237:Generated_Source\PSoC5/CapSense_IdacCH0.c **** * Return:
 238:Generated_Source\PSoC5/CapSense_IdacCH0.c **** *  (void)
 239:Generated_Source\PSoC5/CapSense_IdacCH0.c **** *
 240:Generated_Source\PSoC5/CapSense_IdacCH0.c **** * Theory:
 241:Generated_Source\PSoC5/CapSense_IdacCH0.c **** *
 242:Generated_Source\PSoC5/CapSense_IdacCH0.c **** * Side Effects:
 243:Generated_Source\PSoC5/CapSense_IdacCH0.c **** *
 244:Generated_Source\PSoC5/CapSense_IdacCH0.c **** *******************************************************************************/
 245:Generated_Source\PSoC5/CapSense_IdacCH0.c **** #if(CapSense_IdacCH0_DEFAULT_POLARITY != CapSense_IdacCH0_HARDWARE_CONTROLLED)
 246:Generated_Source\PSoC5/CapSense_IdacCH0.c ****     void CapSense_IdacCH0_SetPolarity(uint8 polarity) 
 247:Generated_Source\PSoC5/CapSense_IdacCH0.c ****     {
 248:Generated_Source\PSoC5/CapSense_IdacCH0.c ****         CapSense_IdacCH0_CR1 &= (uint8)(~CapSense_IdacCH0_IDIR_MASK);                /* clear polar
 249:Generated_Source\PSoC5/CapSense_IdacCH0.c ****         CapSense_IdacCH0_CR1 |= (polarity & CapSense_IdacCH0_IDIR_MASK);             /* set new val
 250:Generated_Source\PSoC5/CapSense_IdacCH0.c ****     
 251:Generated_Source\PSoC5/CapSense_IdacCH0.c ****         CapSense_IdacCH0_DacTrim();
 252:Generated_Source\PSoC5/CapSense_IdacCH0.c ****     }
 253:Generated_Source\PSoC5/CapSense_IdacCH0.c **** #endif/*(CapSense_IdacCH0_DEFAULT_POLARITY != CapSense_IdacCH0_HARDWARE_CONTROLLED)*/
 254:Generated_Source\PSoC5/CapSense_IdacCH0.c **** 
 255:Generated_Source\PSoC5/CapSense_IdacCH0.c **** 
 256:Generated_Source\PSoC5/CapSense_IdacCH0.c **** /*******************************************************************************
 257:Generated_Source\PSoC5/CapSense_IdacCH0.c **** * Function Name: CapSense_IdacCH0_SetRange
 258:Generated_Source\PSoC5/CapSense_IdacCH0.c **** ********************************************************************************
 259:Generated_Source\PSoC5/CapSense_IdacCH0.c **** * Summary:
 260:Generated_Source\PSoC5/CapSense_IdacCH0.c **** *  Set current range
 261:Generated_Source\PSoC5/CapSense_IdacCH0.c **** *
 262:Generated_Source\PSoC5/CapSense_IdacCH0.c **** * Parameters:
 263:Generated_Source\PSoC5/CapSense_IdacCH0.c **** *  Range: Sets on of four valid ranges.
 264:Generated_Source\PSoC5/CapSense_IdacCH0.c **** *
 265:Generated_Source\PSoC5/CapSense_IdacCH0.c **** * Return:
 266:Generated_Source\PSoC5/CapSense_IdacCH0.c **** *  (void)
 267:Generated_Source\PSoC5/CapSense_IdacCH0.c **** *
 268:Generated_Source\PSoC5/CapSense_IdacCH0.c **** * Theory:
 269:Generated_Source\PSoC5/CapSense_IdacCH0.c **** *
 270:Generated_Source\PSoC5/CapSense_IdacCH0.c **** * Side Effects:
 271:Generated_Source\PSoC5/CapSense_IdacCH0.c **** *
 272:Generated_Source\PSoC5/CapSense_IdacCH0.c **** *******************************************************************************/
 273:Generated_Source\PSoC5/CapSense_IdacCH0.c **** void CapSense_IdacCH0_SetRange(uint8 range) 
 274:Generated_Source\PSoC5/CapSense_IdacCH0.c **** {
 275:Generated_Source\PSoC5/CapSense_IdacCH0.c ****     CapSense_IdacCH0_CR0 &= (uint8)(~CapSense_IdacCH0_RANGE_MASK);       /* Clear existing mode */
 276:Generated_Source\PSoC5/CapSense_IdacCH0.c ****     CapSense_IdacCH0_CR0 |= ( range & CapSense_IdacCH0_RANGE_MASK );     /*  Set Range  */
 277:Generated_Source\PSoC5/CapSense_IdacCH0.c ****     CapSense_IdacCH0_DacTrim();
ARM GAS  C:\Users\JEFFSN~1\AppData\Local\Temp\ccqQhWCD.s 			page 8


 278:Generated_Source\PSoC5/CapSense_IdacCH0.c **** }
 279:Generated_Source\PSoC5/CapSense_IdacCH0.c **** 
 280:Generated_Source\PSoC5/CapSense_IdacCH0.c **** 
 281:Generated_Source\PSoC5/CapSense_IdacCH0.c **** /*******************************************************************************
 282:Generated_Source\PSoC5/CapSense_IdacCH0.c **** * Function Name: CapSense_IdacCH0_SetValue
 283:Generated_Source\PSoC5/CapSense_IdacCH0.c **** ********************************************************************************
 284:Generated_Source\PSoC5/CapSense_IdacCH0.c **** * Summary:
 285:Generated_Source\PSoC5/CapSense_IdacCH0.c **** *  Set DAC value
 286:Generated_Source\PSoC5/CapSense_IdacCH0.c **** *
 287:Generated_Source\PSoC5/CapSense_IdacCH0.c **** * Parameters:
 288:Generated_Source\PSoC5/CapSense_IdacCH0.c **** *  value: Sets DAC value between 0 and 255.
 289:Generated_Source\PSoC5/CapSense_IdacCH0.c **** *
 290:Generated_Source\PSoC5/CapSense_IdacCH0.c **** * Return:
 291:Generated_Source\PSoC5/CapSense_IdacCH0.c **** *  (void)
 292:Generated_Source\PSoC5/CapSense_IdacCH0.c **** *
 293:Generated_Source\PSoC5/CapSense_IdacCH0.c **** * Theory:
 294:Generated_Source\PSoC5/CapSense_IdacCH0.c **** *
 295:Generated_Source\PSoC5/CapSense_IdacCH0.c **** * Side Effects:
 296:Generated_Source\PSoC5/CapSense_IdacCH0.c **** *
 297:Generated_Source\PSoC5/CapSense_IdacCH0.c **** *******************************************************************************/
 298:Generated_Source\PSoC5/CapSense_IdacCH0.c **** void CapSense_IdacCH0_SetValue(uint8 value) 
 299:Generated_Source\PSoC5/CapSense_IdacCH0.c **** {
 123              		.loc 1 299 0
 124              		.cfi_startproc
 125              		@ args = 0, pretend = 0, frame = 0
 126              		@ frame_needed = 0, uses_anonymous_args = 0
 127              		@ link register save eliminated.
 128              	.LVL2:
 300:Generated_Source\PSoC5/CapSense_IdacCH0.c **** 
 301:Generated_Source\PSoC5/CapSense_IdacCH0.c ****     #if (CY_PSOC5A)
 302:Generated_Source\PSoC5/CapSense_IdacCH0.c ****         uint8 CapSense_IdacCH0_intrStatus = CyEnterCriticalSection();
 303:Generated_Source\PSoC5/CapSense_IdacCH0.c ****     #endif /* CY_PSOC5A */
 304:Generated_Source\PSoC5/CapSense_IdacCH0.c **** 
 305:Generated_Source\PSoC5/CapSense_IdacCH0.c ****     CapSense_IdacCH0_Data = value;         /*  Set Value  */
 129              		.loc 1 305 0
 130 0000 014B     		ldr	r3, .L11
 131 0002 1870     		strb	r0, [r3]
 132 0004 7047     		bx	lr
 133              	.L12:
 134 0006 00BF     		.align	2
 135              	.L11:
 136 0008 805B0040 		.word	1073765248
 137              		.cfi_endproc
 138              	.LFE7:
 139              		.size	CapSense_IdacCH0_SetValue, .-CapSense_IdacCH0_SetValue
 140              		.section	.text.CapSense_IdacCH0_DacTrim,"ax",%progbits
 141              		.align	2
 142              		.global	CapSense_IdacCH0_DacTrim
 143              		.thumb
 144              		.thumb_func
 145              		.type	CapSense_IdacCH0_DacTrim, %function
 146              	CapSense_IdacCH0_DacTrim:
 147              	.LFB8:
 306:Generated_Source\PSoC5/CapSense_IdacCH0.c ****     
 307:Generated_Source\PSoC5/CapSense_IdacCH0.c ****     /* PSOC5A silicons require a double write */
 308:Generated_Source\PSoC5/CapSense_IdacCH0.c ****     #if (CY_PSOC5A)
 309:Generated_Source\PSoC5/CapSense_IdacCH0.c ****         CapSense_IdacCH0_Data = value;
ARM GAS  C:\Users\JEFFSN~1\AppData\Local\Temp\ccqQhWCD.s 			page 9


 310:Generated_Source\PSoC5/CapSense_IdacCH0.c ****         CyExitCriticalSection(CapSense_IdacCH0_intrStatus);
 311:Generated_Source\PSoC5/CapSense_IdacCH0.c ****     #endif /* CY_PSOC5A */
 312:Generated_Source\PSoC5/CapSense_IdacCH0.c **** }
 313:Generated_Source\PSoC5/CapSense_IdacCH0.c **** 
 314:Generated_Source\PSoC5/CapSense_IdacCH0.c **** 
 315:Generated_Source\PSoC5/CapSense_IdacCH0.c **** /*******************************************************************************
 316:Generated_Source\PSoC5/CapSense_IdacCH0.c **** * Function Name: CapSense_IdacCH0_DacTrim
 317:Generated_Source\PSoC5/CapSense_IdacCH0.c **** ********************************************************************************
 318:Generated_Source\PSoC5/CapSense_IdacCH0.c **** * Summary:
 319:Generated_Source\PSoC5/CapSense_IdacCH0.c **** *  Set the trim value for the given range.
 320:Generated_Source\PSoC5/CapSense_IdacCH0.c **** *
 321:Generated_Source\PSoC5/CapSense_IdacCH0.c **** * Parameters:
 322:Generated_Source\PSoC5/CapSense_IdacCH0.c **** *  None
 323:Generated_Source\PSoC5/CapSense_IdacCH0.c **** *
 324:Generated_Source\PSoC5/CapSense_IdacCH0.c **** * Return:
 325:Generated_Source\PSoC5/CapSense_IdacCH0.c **** *  (void) 
 326:Generated_Source\PSoC5/CapSense_IdacCH0.c **** *
 327:Generated_Source\PSoC5/CapSense_IdacCH0.c **** * Theory:
 328:Generated_Source\PSoC5/CapSense_IdacCH0.c **** *  Trim values for the IDAC blocks are stored in the "Customer Table" area in 
 329:Generated_Source\PSoC5/CapSense_IdacCH0.c **** *  Row 1 of the Hidden Flash.  There are 8 bytes of trim data for each 
 330:Generated_Source\PSoC5/CapSense_IdacCH0.c **** *  IDAC block.
 331:Generated_Source\PSoC5/CapSense_IdacCH0.c **** *  The values are:
 332:Generated_Source\PSoC5/CapSense_IdacCH0.c **** *       I Gain offset, min range, Sourcing
 333:Generated_Source\PSoC5/CapSense_IdacCH0.c **** *       I Gain offset, min range, Sinking
 334:Generated_Source\PSoC5/CapSense_IdacCH0.c **** *       I Gain offset, med range, Sourcing
 335:Generated_Source\PSoC5/CapSense_IdacCH0.c **** *       I Gain offset, med range, Sinking
 336:Generated_Source\PSoC5/CapSense_IdacCH0.c **** *       I Gain offset, max range, Sourcing
 337:Generated_Source\PSoC5/CapSense_IdacCH0.c **** *       I Gain offset, max range, Sinking
 338:Generated_Source\PSoC5/CapSense_IdacCH0.c **** *       V Gain offset, 1V range
 339:Generated_Source\PSoC5/CapSense_IdacCH0.c **** *       V Gain offset, 4V range
 340:Generated_Source\PSoC5/CapSense_IdacCH0.c **** *
 341:Generated_Source\PSoC5/CapSense_IdacCH0.c **** * Side Effects:
 342:Generated_Source\PSoC5/CapSense_IdacCH0.c **** *
 343:Generated_Source\PSoC5/CapSense_IdacCH0.c **** *******************************************************************************/
 344:Generated_Source\PSoC5/CapSense_IdacCH0.c **** void CapSense_IdacCH0_DacTrim(void) 
 345:Generated_Source\PSoC5/CapSense_IdacCH0.c **** {
 148              		.loc 1 345 0
 149              		.cfi_startproc
 150              		@ args = 0, pretend = 0, frame = 0
 151              		@ frame_needed = 0, uses_anonymous_args = 0
 152              		@ link register save eliminated.
 346:Generated_Source\PSoC5/CapSense_IdacCH0.c ****     uint8 mode;
 347:Generated_Source\PSoC5/CapSense_IdacCH0.c **** 
 348:Generated_Source\PSoC5/CapSense_IdacCH0.c ****     mode = ((CapSense_IdacCH0_CR0 & CapSense_IdacCH0_RANGE_MASK) >> 1u);
 153              		.loc 1 348 0
 154 0000 094B     		ldr	r3, .L15
 155 0002 1B78     		ldrb	r3, [r3]	@ zero_extendqisi2
 156 0004 03F00C03 		and	r3, r3, #12
 157 0008 5B08     		lsrs	r3, r3, #1
 158              	.LVL3:
 349:Generated_Source\PSoC5/CapSense_IdacCH0.c ****     
 350:Generated_Source\PSoC5/CapSense_IdacCH0.c ****     if((CapSense_IdacCH0_IDIR_MASK & CapSense_IdacCH0_CR1) == CapSense_IdacCH0_IDIR_SINK)
 159              		.loc 1 350 0
 160 000a 084A     		ldr	r2, .L15+4
 161 000c 1278     		ldrb	r2, [r2]	@ zero_extendqisi2
 162 000e 12F0040F 		tst	r2, #4
 163 0012 00D0     		beq	.L14
ARM GAS  C:\Users\JEFFSN~1\AppData\Local\Temp\ccqQhWCD.s 			page 10


 351:Generated_Source\PSoC5/CapSense_IdacCH0.c ****     {
 352:Generated_Source\PSoC5/CapSense_IdacCH0.c ****         mode++;
 164              		.loc 1 352 0
 165 0014 0133     		adds	r3, r3, #1
 166              	.LVL4:
 167              	.L14:
 353:Generated_Source\PSoC5/CapSense_IdacCH0.c ****     }
 354:Generated_Source\PSoC5/CapSense_IdacCH0.c **** 
 355:Generated_Source\PSoC5/CapSense_IdacCH0.c ****     CapSense_IdacCH0_TR = CY_GET_XTND_REG8((uint8 *)(CapSense_IdacCH0_DAC_TRIM_BASE + mode));
 168              		.loc 1 355 0
 169 0016 03F19243 		add	r3, r3, #1224736768
 170              	.LVL5:
 171 001a 93F82031 		ldrb	r3, [r3, #288]	@ zero_extendqisi2
 172 001e DBB2     		uxtb	r3, r3
 173 0020 034A     		ldr	r2, .L15+8
 174 0022 1370     		strb	r3, [r2]
 175 0024 7047     		bx	lr
 176              	.L16:
 177 0026 00BF     		.align	2
 178              	.L15:
 179 0028 20580040 		.word	1073764384
 180 002c 21580040 		.word	1073764385
 181 0030 08460040 		.word	1073759752
 182              		.cfi_endproc
 183              	.LFE8:
 184              		.size	CapSense_IdacCH0_DacTrim, .-CapSense_IdacCH0_DacTrim
 185              		.section	.text.CapSense_IdacCH0_Init,"ax",%progbits
 186              		.align	2
 187              		.global	CapSense_IdacCH0_Init
 188              		.thumb
 189              		.thumb_func
 190              		.type	CapSense_IdacCH0_Init, %function
 191              	CapSense_IdacCH0_Init:
 192              	.LFB0:
  59:Generated_Source\PSoC5/CapSense_IdacCH0.c ****     CapSense_IdacCH0_CR0 = (CapSense_IdacCH0_MODE_I | CapSense_IdacCH0_DEFAULT_RANGE );
 193              		.loc 1 59 0
 194              		.cfi_startproc
 195              		@ args = 0, pretend = 0, frame = 0
 196              		@ frame_needed = 0, uses_anonymous_args = 0
 197 0000 08B5     		push	{r3, lr}
 198              		.cfi_def_cfa_offset 8
 199              		.cfi_offset 3, -8
 200              		.cfi_offset 14, -4
  60:Generated_Source\PSoC5/CapSense_IdacCH0.c **** 
 201              		.loc 1 60 0
 202 0002 1422     		movs	r2, #20
 203 0004 084B     		ldr	r3, .L19
 204 0006 1A70     		strb	r2, [r3]
  66:Generated_Source\PSoC5/CapSense_IdacCH0.c ****     #endif /* (CapSense_IdacCH0_DEFAULT_DATA_SRC != 0u ) */
 205              		.loc 1 66 0
 206 0008 0133     		adds	r3, r3, #1
 207 000a 0020     		movs	r0, #0
 208 000c 1870     		strb	r0, [r3]
  73:Generated_Source\PSoC5/CapSense_IdacCH0.c ****     #endif/* (CapSense_IdacCH0_DEFAULT_POLARITY == CapSense_IdacCH0_HARDWARE_CONTROLLED) */
 209              		.loc 1 73 0
 210 000e 1A78     		ldrb	r2, [r3]	@ zero_extendqisi2
 211 0010 42F00402 		orr	r2, r2, #4
ARM GAS  C:\Users\JEFFSN~1\AppData\Local\Temp\ccqQhWCD.s 			page 11


 212 0014 1A70     		strb	r2, [r3]
  77:Generated_Source\PSoC5/CapSense_IdacCH0.c ****     #endif /* (CapSense_IdacCH0_HARDWARE_ENABLE != 0u ) */ 
 213              		.loc 1 77 0
 214 0016 1A78     		ldrb	r2, [r3]	@ zero_extendqisi2
 215 0018 42F00202 		orr	r2, r2, #2
 216 001c 1A70     		strb	r2, [r3]
  86:Generated_Source\PSoC5/CapSense_IdacCH0.c ****     
 217              		.loc 1 86 0
 218 001e FFF7FEFF 		bl	CapSense_IdacCH0_SetSpeed
 219              	.LVL6:
  89:Generated_Source\PSoC5/CapSense_IdacCH0.c ****     
 220              		.loc 1 89 0
 221 0022 FFF7FEFF 		bl	CapSense_IdacCH0_DacTrim
 222              	.LVL7:
 223 0026 08BD     		pop	{r3, pc}
 224              	.L20:
 225              		.align	2
 226              	.L19:
 227 0028 20580040 		.word	1073764384
 228              		.cfi_endproc
 229              	.LFE0:
 230              		.size	CapSense_IdacCH0_Init, .-CapSense_IdacCH0_Init
 231              		.section	.text.CapSense_IdacCH0_Start,"ax",%progbits
 232              		.align	2
 233              		.global	CapSense_IdacCH0_Start
 234              		.thumb
 235              		.thumb_func
 236              		.type	CapSense_IdacCH0_Start, %function
 237              	CapSense_IdacCH0_Start:
 238              	.LFB2:
 148:Generated_Source\PSoC5/CapSense_IdacCH0.c ****     /* Hardware initiazation only needs to occur the first time */
 239              		.loc 1 148 0
 240              		.cfi_startproc
 241              		@ args = 0, pretend = 0, frame = 0
 242              		@ frame_needed = 0, uses_anonymous_args = 0
 243 0000 08B5     		push	{r3, lr}
 244              		.cfi_def_cfa_offset 8
 245              		.cfi_offset 3, -8
 246              		.cfi_offset 14, -4
 150:Generated_Source\PSoC5/CapSense_IdacCH0.c ****     {
 247              		.loc 1 150 0
 248 0002 074B     		ldr	r3, .L24
 249 0004 1B78     		ldrb	r3, [r3]	@ zero_extendqisi2
 250 0006 23B9     		cbnz	r3, .L22
 152:Generated_Source\PSoC5/CapSense_IdacCH0.c ****         
 251              		.loc 1 152 0
 252 0008 FFF7FEFF 		bl	CapSense_IdacCH0_Init
 253              	.LVL8:
 154:Generated_Source\PSoC5/CapSense_IdacCH0.c ****     }
 254              		.loc 1 154 0
 255 000c 0122     		movs	r2, #1
 256 000e 044B     		ldr	r3, .L24
 257 0010 1A70     		strb	r2, [r3]
 258              	.L22:
 158:Generated_Source\PSoC5/CapSense_IdacCH0.c **** 
 259              		.loc 1 158 0
 260 0012 FFF7FEFF 		bl	CapSense_IdacCH0_Enable
ARM GAS  C:\Users\JEFFSN~1\AppData\Local\Temp\ccqQhWCD.s 			page 12


 261              	.LVL9:
 161:Generated_Source\PSoC5/CapSense_IdacCH0.c **** 
 262              		.loc 1 161 0
 263 0016 0020     		movs	r0, #0
 264 0018 FFF7FEFF 		bl	CapSense_IdacCH0_SetValue
 265              	.LVL10:
 266 001c 08BD     		pop	{r3, pc}
 267              	.L25:
 268 001e 00BF     		.align	2
 269              	.L24:
 270 0020 00000000 		.word	.LANCHOR0
 271              		.cfi_endproc
 272              	.LFE2:
 273              		.size	CapSense_IdacCH0_Start, .-CapSense_IdacCH0_Start
 274              		.section	.text.CapSense_IdacCH0_SetPolarity,"ax",%progbits
 275              		.align	2
 276              		.global	CapSense_IdacCH0_SetPolarity
 277              		.thumb
 278              		.thumb_func
 279              		.type	CapSense_IdacCH0_SetPolarity, %function
 280              	CapSense_IdacCH0_SetPolarity:
 281              	.LFB5:
 247:Generated_Source\PSoC5/CapSense_IdacCH0.c ****         CapSense_IdacCH0_CR1 &= (uint8)(~CapSense_IdacCH0_IDIR_MASK);                /* clear polar
 282              		.loc 1 247 0
 283              		.cfi_startproc
 284              		@ args = 0, pretend = 0, frame = 0
 285              		@ frame_needed = 0, uses_anonymous_args = 0
 286              	.LVL11:
 287 0000 08B5     		push	{r3, lr}
 288              		.cfi_def_cfa_offset 8
 289              		.cfi_offset 3, -8
 290              		.cfi_offset 14, -4
 248:Generated_Source\PSoC5/CapSense_IdacCH0.c ****         CapSense_IdacCH0_CR1 |= (polarity & CapSense_IdacCH0_IDIR_MASK);             /* set new val
 291              		.loc 1 248 0
 292 0002 064B     		ldr	r3, .L28
 293 0004 1A78     		ldrb	r2, [r3]	@ zero_extendqisi2
 294 0006 02F0FB02 		and	r2, r2, #251
 295 000a 1A70     		strb	r2, [r3]
 249:Generated_Source\PSoC5/CapSense_IdacCH0.c ****     
 296              		.loc 1 249 0
 297 000c 1A78     		ldrb	r2, [r3]	@ zero_extendqisi2
 298 000e 00F00400 		and	r0, r0, #4
 299              	.LVL12:
 300 0012 1043     		orrs	r0, r0, r2
 301 0014 1870     		strb	r0, [r3]
 251:Generated_Source\PSoC5/CapSense_IdacCH0.c ****     }
 302              		.loc 1 251 0
 303 0016 FFF7FEFF 		bl	CapSense_IdacCH0_DacTrim
 304              	.LVL13:
 305 001a 08BD     		pop	{r3, pc}
 306              	.L29:
 307              		.align	2
 308              	.L28:
 309 001c 21580040 		.word	1073764385
 310              		.cfi_endproc
 311              	.LFE5:
 312              		.size	CapSense_IdacCH0_SetPolarity, .-CapSense_IdacCH0_SetPolarity
ARM GAS  C:\Users\JEFFSN~1\AppData\Local\Temp\ccqQhWCD.s 			page 13


 313              		.section	.text.CapSense_IdacCH0_SetRange,"ax",%progbits
 314              		.align	2
 315              		.global	CapSense_IdacCH0_SetRange
 316              		.thumb
 317              		.thumb_func
 318              		.type	CapSense_IdacCH0_SetRange, %function
 319              	CapSense_IdacCH0_SetRange:
 320              	.LFB6:
 274:Generated_Source\PSoC5/CapSense_IdacCH0.c ****     CapSense_IdacCH0_CR0 &= (uint8)(~CapSense_IdacCH0_RANGE_MASK);       /* Clear existing mode */
 321              		.loc 1 274 0
 322              		.cfi_startproc
 323              		@ args = 0, pretend = 0, frame = 0
 324              		@ frame_needed = 0, uses_anonymous_args = 0
 325              	.LVL14:
 326 0000 08B5     		push	{r3, lr}
 327              		.cfi_def_cfa_offset 8
 328              		.cfi_offset 3, -8
 329              		.cfi_offset 14, -4
 275:Generated_Source\PSoC5/CapSense_IdacCH0.c ****     CapSense_IdacCH0_CR0 |= ( range & CapSense_IdacCH0_RANGE_MASK );     /*  Set Range  */
 330              		.loc 1 275 0
 331 0002 064B     		ldr	r3, .L32
 332 0004 1A78     		ldrb	r2, [r3]	@ zero_extendqisi2
 333 0006 02F0F302 		and	r2, r2, #243
 334 000a 1A70     		strb	r2, [r3]
 276:Generated_Source\PSoC5/CapSense_IdacCH0.c ****     CapSense_IdacCH0_DacTrim();
 335              		.loc 1 276 0
 336 000c 1A78     		ldrb	r2, [r3]	@ zero_extendqisi2
 337 000e 00F00C00 		and	r0, r0, #12
 338              	.LVL15:
 339 0012 1043     		orrs	r0, r0, r2
 340 0014 1870     		strb	r0, [r3]
 277:Generated_Source\PSoC5/CapSense_IdacCH0.c **** }
 341              		.loc 1 277 0
 342 0016 FFF7FEFF 		bl	CapSense_IdacCH0_DacTrim
 343              	.LVL16:
 344 001a 08BD     		pop	{r3, pc}
 345              	.L33:
 346              		.align	2
 347              	.L32:
 348 001c 20580040 		.word	1073764384
 349              		.cfi_endproc
 350              	.LFE6:
 351              		.size	CapSense_IdacCH0_SetRange, .-CapSense_IdacCH0_SetRange
 352              		.global	CapSense_IdacCH0_initVar
 353              		.bss
 354              		.set	.LANCHOR0,. + 0
 355              		.type	CapSense_IdacCH0_initVar, %object
 356              		.size	CapSense_IdacCH0_initVar, 1
 357              	CapSense_IdacCH0_initVar:
 358 0000 00       		.space	1
 359              		.text
 360              	.Letext0:
 361              		.file 2 "Generated_Source\\PSoC5\\cytypes.h"