ARM GAS  C:\Users\JEFFSN~1\AppData\Local\Temp\ccvGkY7A.s 			page 1


   1              		.syntax unified
   2              		.cpu cortex-m3
   3              		.fpu softvfp
   4              		.eabi_attribute 20, 1
   5              		.eabi_attribute 21, 1
   6              		.eabi_attribute 23, 3
   7              		.eabi_attribute 24, 1
   8              		.eabi_attribute 25, 1
   9              		.eabi_attribute 26, 1
  10              		.eabi_attribute 30, 1
  11              		.eabi_attribute 34, 1
  12              		.eabi_attribute 18, 4
  13              		.thumb
  14              		.syntax unified
  15              		.file	"CapSense_AMuxCH0.c"
  16              		.text
  17              	.Ltext0:
  18              		.cfi_sections	.debug_frame
  19              		.section	.text.CapSense_AMuxCH0_FastSelect,"ax",%progbits
  20              		.align	2
  21              		.global	CapSense_AMuxCH0_FastSelect
  22              		.thumb
  23              		.thumb_func
  24              		.type	CapSense_AMuxCH0_FastSelect, %function
  25              	CapSense_AMuxCH0_FastSelect:
  26              	.LFB4:
  27              		.file 1 "Generated_Source\\PSoC5\\CapSense_AMuxCH0.c"
   1:Generated_Source\PSoC5/CapSense_AMuxCH0.c **** /*******************************************************************************
   2:Generated_Source\PSoC5/CapSense_AMuxCH0.c **** * File Name: CapSense_AMuxCH0.c
   3:Generated_Source\PSoC5/CapSense_AMuxCH0.c **** * Version 3.50
   4:Generated_Source\PSoC5/CapSense_AMuxCH0.c **** *
   5:Generated_Source\PSoC5/CapSense_AMuxCH0.c **** *  Description:
   6:Generated_Source\PSoC5/CapSense_AMuxCH0.c **** *    This file contains all functions required for the analog multiplexer
   7:Generated_Source\PSoC5/CapSense_AMuxCH0.c **** *    CapSense_CSD_AMux User Module.
   8:Generated_Source\PSoC5/CapSense_AMuxCH0.c **** *
   9:Generated_Source\PSoC5/CapSense_AMuxCH0.c **** *   Note:
  10:Generated_Source\PSoC5/CapSense_AMuxCH0.c **** *
  11:Generated_Source\PSoC5/CapSense_AMuxCH0.c **** *******************************************************************************
  12:Generated_Source\PSoC5/CapSense_AMuxCH0.c **** * Copyright 2008-2012, Cypress Semiconductor Corporation.  All rights reserved.
  13:Generated_Source\PSoC5/CapSense_AMuxCH0.c **** * You may use this file only in accordance with the license, terms, conditions, 
  14:Generated_Source\PSoC5/CapSense_AMuxCH0.c **** * disclaimers, and limitations in the end user license agreement accompanying 
  15:Generated_Source\PSoC5/CapSense_AMuxCH0.c **** * the software package with which this file was provided.
  16:Generated_Source\PSoC5/CapSense_AMuxCH0.c **** ********************************************************************************/
  17:Generated_Source\PSoC5/CapSense_AMuxCH0.c **** 
  18:Generated_Source\PSoC5/CapSense_AMuxCH0.c **** #include "CapSense_AMuxCH0.h"
  19:Generated_Source\PSoC5/CapSense_AMuxCH0.c **** 
  20:Generated_Source\PSoC5/CapSense_AMuxCH0.c **** uint8 CapSense_AMuxCH0_initVar = 0u;
  21:Generated_Source\PSoC5/CapSense_AMuxCH0.c **** uint8 CapSense_AMuxCH0_lastChannel = CapSense_AMuxCH0_NULL_CHANNEL;
  22:Generated_Source\PSoC5/CapSense_AMuxCH0.c **** 
  23:Generated_Source\PSoC5/CapSense_AMuxCH0.c **** 
  24:Generated_Source\PSoC5/CapSense_AMuxCH0.c **** /*******************************************************************************
  25:Generated_Source\PSoC5/CapSense_AMuxCH0.c **** * Function Name: CapSense_AMuxCH0_Start
  26:Generated_Source\PSoC5/CapSense_AMuxCH0.c **** ********************************************************************************
  27:Generated_Source\PSoC5/CapSense_AMuxCH0.c **** * Summary:
  28:Generated_Source\PSoC5/CapSense_AMuxCH0.c **** *  Disconnect all channels.
  29:Generated_Source\PSoC5/CapSense_AMuxCH0.c **** *
  30:Generated_Source\PSoC5/CapSense_AMuxCH0.c **** * Parameters:
ARM GAS  C:\Users\JEFFSN~1\AppData\Local\Temp\ccvGkY7A.s 			page 2


  31:Generated_Source\PSoC5/CapSense_AMuxCH0.c **** *  void
  32:Generated_Source\PSoC5/CapSense_AMuxCH0.c **** *
  33:Generated_Source\PSoC5/CapSense_AMuxCH0.c **** * Return:
  34:Generated_Source\PSoC5/CapSense_AMuxCH0.c **** *  void
  35:Generated_Source\PSoC5/CapSense_AMuxCH0.c **** *
  36:Generated_Source\PSoC5/CapSense_AMuxCH0.c **** *******************************************************************************/
  37:Generated_Source\PSoC5/CapSense_AMuxCH0.c **** void CapSense_AMuxCH0_Start(void)
  38:Generated_Source\PSoC5/CapSense_AMuxCH0.c **** {
  39:Generated_Source\PSoC5/CapSense_AMuxCH0.c ****     CapSense_AMuxCH0_DisconnectAll();
  40:Generated_Source\PSoC5/CapSense_AMuxCH0.c ****     CapSense_AMuxCH0_initVar = 1u;
  41:Generated_Source\PSoC5/CapSense_AMuxCH0.c **** }
  42:Generated_Source\PSoC5/CapSense_AMuxCH0.c **** 
  43:Generated_Source\PSoC5/CapSense_AMuxCH0.c **** 
  44:Generated_Source\PSoC5/CapSense_AMuxCH0.c **** /*******************************************************************************
  45:Generated_Source\PSoC5/CapSense_AMuxCH0.c **** * Function Name: CapSense_AMuxCH0_Init
  46:Generated_Source\PSoC5/CapSense_AMuxCH0.c **** ********************************************************************************
  47:Generated_Source\PSoC5/CapSense_AMuxCH0.c **** * Summary:
  48:Generated_Source\PSoC5/CapSense_AMuxCH0.c **** *  Disconnect all channels.
  49:Generated_Source\PSoC5/CapSense_AMuxCH0.c **** *
  50:Generated_Source\PSoC5/CapSense_AMuxCH0.c **** * Parameters:
  51:Generated_Source\PSoC5/CapSense_AMuxCH0.c **** *  void
  52:Generated_Source\PSoC5/CapSense_AMuxCH0.c **** *
  53:Generated_Source\PSoC5/CapSense_AMuxCH0.c **** * Return:
  54:Generated_Source\PSoC5/CapSense_AMuxCH0.c **** *  void
  55:Generated_Source\PSoC5/CapSense_AMuxCH0.c **** *
  56:Generated_Source\PSoC5/CapSense_AMuxCH0.c **** *******************************************************************************/
  57:Generated_Source\PSoC5/CapSense_AMuxCH0.c **** void CapSense_AMuxCH0_Init(void)
  58:Generated_Source\PSoC5/CapSense_AMuxCH0.c **** {
  59:Generated_Source\PSoC5/CapSense_AMuxCH0.c ****     CapSense_AMuxCH0_DisconnectAll();
  60:Generated_Source\PSoC5/CapSense_AMuxCH0.c **** }
  61:Generated_Source\PSoC5/CapSense_AMuxCH0.c **** 
  62:Generated_Source\PSoC5/CapSense_AMuxCH0.c **** 
  63:Generated_Source\PSoC5/CapSense_AMuxCH0.c **** /*******************************************************************************
  64:Generated_Source\PSoC5/CapSense_AMuxCH0.c **** * Function Name: CapSense_AMuxCH0_Stop
  65:Generated_Source\PSoC5/CapSense_AMuxCH0.c **** ********************************************************************************
  66:Generated_Source\PSoC5/CapSense_AMuxCH0.c **** * Summary:
  67:Generated_Source\PSoC5/CapSense_AMuxCH0.c **** *  Disconnect all channels.
  68:Generated_Source\PSoC5/CapSense_AMuxCH0.c **** *
  69:Generated_Source\PSoC5/CapSense_AMuxCH0.c **** * Parameters:
  70:Generated_Source\PSoC5/CapSense_AMuxCH0.c **** *  void
  71:Generated_Source\PSoC5/CapSense_AMuxCH0.c **** *
  72:Generated_Source\PSoC5/CapSense_AMuxCH0.c **** * Return:
  73:Generated_Source\PSoC5/CapSense_AMuxCH0.c **** *  void
  74:Generated_Source\PSoC5/CapSense_AMuxCH0.c **** *
  75:Generated_Source\PSoC5/CapSense_AMuxCH0.c **** *******************************************************************************/
  76:Generated_Source\PSoC5/CapSense_AMuxCH0.c **** void CapSense_AMuxCH0_Stop(void)
  77:Generated_Source\PSoC5/CapSense_AMuxCH0.c **** {
  78:Generated_Source\PSoC5/CapSense_AMuxCH0.c ****     CapSense_AMuxCH0_DisconnectAll();
  79:Generated_Source\PSoC5/CapSense_AMuxCH0.c **** }
  80:Generated_Source\PSoC5/CapSense_AMuxCH0.c **** 
  81:Generated_Source\PSoC5/CapSense_AMuxCH0.c **** 
  82:Generated_Source\PSoC5/CapSense_AMuxCH0.c **** /*******************************************************************************
  83:Generated_Source\PSoC5/CapSense_AMuxCH0.c **** * Function Name: CapSense_AMuxCH0_Select
  84:Generated_Source\PSoC5/CapSense_AMuxCH0.c **** ********************************************************************************
  85:Generated_Source\PSoC5/CapSense_AMuxCH0.c **** * Summary:
  86:Generated_Source\PSoC5/CapSense_AMuxCH0.c **** *  This functions first disconnects all channels then connects the given
  87:Generated_Source\PSoC5/CapSense_AMuxCH0.c **** *  channel.
ARM GAS  C:\Users\JEFFSN~1\AppData\Local\Temp\ccvGkY7A.s 			page 3


  88:Generated_Source\PSoC5/CapSense_AMuxCH0.c **** *
  89:Generated_Source\PSoC5/CapSense_AMuxCH0.c **** * Parameters:
  90:Generated_Source\PSoC5/CapSense_AMuxCH0.c **** *  channel:  The channel to connect to the common terminal.
  91:Generated_Source\PSoC5/CapSense_AMuxCH0.c **** *
  92:Generated_Source\PSoC5/CapSense_AMuxCH0.c **** * Return:
  93:Generated_Source\PSoC5/CapSense_AMuxCH0.c **** *  void
  94:Generated_Source\PSoC5/CapSense_AMuxCH0.c **** *
  95:Generated_Source\PSoC5/CapSense_AMuxCH0.c **** *******************************************************************************/
  96:Generated_Source\PSoC5/CapSense_AMuxCH0.c **** void CapSense_AMuxCH0_Select(uint8 channel) CYREENTRANT
  97:Generated_Source\PSoC5/CapSense_AMuxCH0.c **** {
  98:Generated_Source\PSoC5/CapSense_AMuxCH0.c ****     CapSense_AMuxCH0_DisconnectAll();        /* Disconnect all previous connections */
  99:Generated_Source\PSoC5/CapSense_AMuxCH0.c ****     CapSense_AMuxCH0_Connect(channel);       /* Make the given selection */
 100:Generated_Source\PSoC5/CapSense_AMuxCH0.c ****     CapSense_AMuxCH0_lastChannel = channel;  /* Update last channel */
 101:Generated_Source\PSoC5/CapSense_AMuxCH0.c **** }
 102:Generated_Source\PSoC5/CapSense_AMuxCH0.c **** 
 103:Generated_Source\PSoC5/CapSense_AMuxCH0.c **** 
 104:Generated_Source\PSoC5/CapSense_AMuxCH0.c **** /*******************************************************************************
 105:Generated_Source\PSoC5/CapSense_AMuxCH0.c **** * Function Name: CapSense_AMuxCH0_FastSelect
 106:Generated_Source\PSoC5/CapSense_AMuxCH0.c **** ********************************************************************************
 107:Generated_Source\PSoC5/CapSense_AMuxCH0.c **** * Summary:
 108:Generated_Source\PSoC5/CapSense_AMuxCH0.c **** *  This function first disconnects the last connection made with FastSelect or
 109:Generated_Source\PSoC5/CapSense_AMuxCH0.c **** *  Select, then connects the given channel. The FastSelect function is similar
 110:Generated_Source\PSoC5/CapSense_AMuxCH0.c **** *  to the Select function, except it is faster since it only disconnects the
 111:Generated_Source\PSoC5/CapSense_AMuxCH0.c **** *  last channel selected rather than all channels.
 112:Generated_Source\PSoC5/CapSense_AMuxCH0.c **** *
 113:Generated_Source\PSoC5/CapSense_AMuxCH0.c **** * Parameters:
 114:Generated_Source\PSoC5/CapSense_AMuxCH0.c **** *  channel:  The channel to connect to the common terminal.
 115:Generated_Source\PSoC5/CapSense_AMuxCH0.c **** *
 116:Generated_Source\PSoC5/CapSense_AMuxCH0.c **** * Return:
 117:Generated_Source\PSoC5/CapSense_AMuxCH0.c **** *  void
 118:Generated_Source\PSoC5/CapSense_AMuxCH0.c **** *
 119:Generated_Source\PSoC5/CapSense_AMuxCH0.c **** *******************************************************************************/
 120:Generated_Source\PSoC5/CapSense_AMuxCH0.c **** void CapSense_AMuxCH0_FastSelect(uint8 channel) CYREENTRANT
 121:Generated_Source\PSoC5/CapSense_AMuxCH0.c **** {
  28              		.loc 1 121 0
  29              		.cfi_startproc
  30              		@ args = 0, pretend = 0, frame = 0
  31              		@ frame_needed = 0, uses_anonymous_args = 0
  32              	.LVL0:
  33 0000 10B5     		push	{r4, lr}
  34              		.cfi_def_cfa_offset 8
  35              		.cfi_offset 4, -8
  36              		.cfi_offset 14, -4
  37 0002 0446     		mov	r4, r0
 122:Generated_Source\PSoC5/CapSense_AMuxCH0.c ****     /* Disconnect the last valid channel */
 123:Generated_Source\PSoC5/CapSense_AMuxCH0.c ****     if( CapSense_AMuxCH0_lastChannel != CapSense_AMuxCH0_NULL_CHANNEL)   /* Update last channel */
  38              		.loc 1 123 0
  39 0004 054B     		ldr	r3, .L4
  40 0006 1878     		ldrb	r0, [r3]	@ zero_extendqisi2
  41              	.LVL1:
  42 0008 FF28     		cmp	r0, #255
  43 000a 01D0     		beq	.L2
 124:Generated_Source\PSoC5/CapSense_AMuxCH0.c ****     {
 125:Generated_Source\PSoC5/CapSense_AMuxCH0.c ****         CapSense_AMuxCH0_Disconnect(CapSense_AMuxCH0_lastChannel);
  44              		.loc 1 125 0
  45 000c FFF7FEFF 		bl	CapSense_AMuxCH0_Unset
  46              	.LVL2:
ARM GAS  C:\Users\JEFFSN~1\AppData\Local\Temp\ccvGkY7A.s 			page 4


  47              	.L2:
 126:Generated_Source\PSoC5/CapSense_AMuxCH0.c ****     }
 127:Generated_Source\PSoC5/CapSense_AMuxCH0.c **** 
 128:Generated_Source\PSoC5/CapSense_AMuxCH0.c ****     /* Make the new channel connection */
 129:Generated_Source\PSoC5/CapSense_AMuxCH0.c ****     CapSense_AMuxCH0_Connect(channel);
  48              		.loc 1 129 0
  49 0010 2046     		mov	r0, r4
  50 0012 FFF7FEFF 		bl	CapSense_AMuxCH0_Set
  51              	.LVL3:
 130:Generated_Source\PSoC5/CapSense_AMuxCH0.c ****     CapSense_AMuxCH0_lastChannel = channel;   /* Update last channel */
  52              		.loc 1 130 0
  53 0016 014B     		ldr	r3, .L4
  54 0018 1C70     		strb	r4, [r3]
  55 001a 10BD     		pop	{r4, pc}
  56              	.L5:
  57              		.align	2
  58              	.L4:
  59 001c 00000000 		.word	.LANCHOR0
  60              		.cfi_endproc
  61              	.LFE4:
  62              		.size	CapSense_AMuxCH0_FastSelect, .-CapSense_AMuxCH0_FastSelect
  63              		.section	.text.CapSense_AMuxCH0_DisconnectAll,"ax",%progbits
  64              		.align	2
  65              		.global	CapSense_AMuxCH0_DisconnectAll
  66              		.thumb
  67              		.thumb_func
  68              		.type	CapSense_AMuxCH0_DisconnectAll, %function
  69              	CapSense_AMuxCH0_DisconnectAll:
  70              	.LFB5:
 131:Generated_Source\PSoC5/CapSense_AMuxCH0.c **** }
 132:Generated_Source\PSoC5/CapSense_AMuxCH0.c **** 
 133:Generated_Source\PSoC5/CapSense_AMuxCH0.c **** 
 134:Generated_Source\PSoC5/CapSense_AMuxCH0.c **** #if(CapSense_AMuxCH0_MUXTYPE == CapSense_AMuxCH0_MUX_DIFF)
 135:Generated_Source\PSoC5/CapSense_AMuxCH0.c ****     /*******************************************************************************
 136:Generated_Source\PSoC5/CapSense_AMuxCH0.c ****     * Function Name: CapSense_AMuxCH0_Connect
 137:Generated_Source\PSoC5/CapSense_AMuxCH0.c ****     ********************************************************************************
 138:Generated_Source\PSoC5/CapSense_AMuxCH0.c ****     * Summary:
 139:Generated_Source\PSoC5/CapSense_AMuxCH0.c ****     *  This function connects the given channel without affecting other connections.
 140:Generated_Source\PSoC5/CapSense_AMuxCH0.c ****     *
 141:Generated_Source\PSoC5/CapSense_AMuxCH0.c ****     * Parameters:
 142:Generated_Source\PSoC5/CapSense_AMuxCH0.c ****     *  channel:  The channel to connect to the common terminal.
 143:Generated_Source\PSoC5/CapSense_AMuxCH0.c ****     *
 144:Generated_Source\PSoC5/CapSense_AMuxCH0.c ****     * Return:
 145:Generated_Source\PSoC5/CapSense_AMuxCH0.c ****     *  void
 146:Generated_Source\PSoC5/CapSense_AMuxCH0.c ****     *
 147:Generated_Source\PSoC5/CapSense_AMuxCH0.c ****     *******************************************************************************/
 148:Generated_Source\PSoC5/CapSense_AMuxCH0.c ****     void CapSense_AMuxCH0_Connect(uint8 channel) CYREENTRANT
 149:Generated_Source\PSoC5/CapSense_AMuxCH0.c ****     {
 150:Generated_Source\PSoC5/CapSense_AMuxCH0.c ****         CapSense_AMuxCH0_CYAMUXSIDE_A_Set(channel);
 151:Generated_Source\PSoC5/CapSense_AMuxCH0.c ****         CapSense_AMuxCH0_CYAMUXSIDE_B_Set(channel);
 152:Generated_Source\PSoC5/CapSense_AMuxCH0.c ****     }
 153:Generated_Source\PSoC5/CapSense_AMuxCH0.c ****     
 154:Generated_Source\PSoC5/CapSense_AMuxCH0.c ****     
 155:Generated_Source\PSoC5/CapSense_AMuxCH0.c ****     /*******************************************************************************
 156:Generated_Source\PSoC5/CapSense_AMuxCH0.c ****     * Function Name: CapSense_AMuxCH0_Disconnect
 157:Generated_Source\PSoC5/CapSense_AMuxCH0.c ****     ********************************************************************************
 158:Generated_Source\PSoC5/CapSense_AMuxCH0.c ****     * Summary:
ARM GAS  C:\Users\JEFFSN~1\AppData\Local\Temp\ccvGkY7A.s 			page 5


 159:Generated_Source\PSoC5/CapSense_AMuxCH0.c ****     *  This function disconnects the given channel from the common or output
 160:Generated_Source\PSoC5/CapSense_AMuxCH0.c ****     *  terminal without affecting other connections.
 161:Generated_Source\PSoC5/CapSense_AMuxCH0.c ****     *
 162:Generated_Source\PSoC5/CapSense_AMuxCH0.c ****     * Parameters:
 163:Generated_Source\PSoC5/CapSense_AMuxCH0.c ****     *  channel:  The channel to disconnect from the common terminal.
 164:Generated_Source\PSoC5/CapSense_AMuxCH0.c ****     *
 165:Generated_Source\PSoC5/CapSense_AMuxCH0.c ****     * Return:
 166:Generated_Source\PSoC5/CapSense_AMuxCH0.c ****     *  void
 167:Generated_Source\PSoC5/CapSense_AMuxCH0.c ****     *
 168:Generated_Source\PSoC5/CapSense_AMuxCH0.c ****     *******************************************************************************/
 169:Generated_Source\PSoC5/CapSense_AMuxCH0.c ****     void CapSense_AMuxCH0_Disconnect(uint8 channel) CYREENTRANT
 170:Generated_Source\PSoC5/CapSense_AMuxCH0.c ****     {
 171:Generated_Source\PSoC5/CapSense_AMuxCH0.c ****         CapSense_AMuxCH0_CYAMUXSIDE_A_Unset(channel);
 172:Generated_Source\PSoC5/CapSense_AMuxCH0.c ****         CapSense_AMuxCH0_CYAMUXSIDE_B_Unset(channel);
 173:Generated_Source\PSoC5/CapSense_AMuxCH0.c ****     }
 174:Generated_Source\PSoC5/CapSense_AMuxCH0.c ****     
 175:Generated_Source\PSoC5/CapSense_AMuxCH0.c **** #endif  /* End (CapSense_AMuxCH0_MUXTYPE == CapSense_AMuxCH0_MUX_DIFF) */
 176:Generated_Source\PSoC5/CapSense_AMuxCH0.c **** 
 177:Generated_Source\PSoC5/CapSense_AMuxCH0.c **** 
 178:Generated_Source\PSoC5/CapSense_AMuxCH0.c **** /*******************************************************************************
 179:Generated_Source\PSoC5/CapSense_AMuxCH0.c **** * Function Name: CapSense_AMuxCH0_DisconnectAll
 180:Generated_Source\PSoC5/CapSense_AMuxCH0.c **** ********************************************************************************
 181:Generated_Source\PSoC5/CapSense_AMuxCH0.c **** * Summary:
 182:Generated_Source\PSoC5/CapSense_AMuxCH0.c **** *  This function disconnects all channels.
 183:Generated_Source\PSoC5/CapSense_AMuxCH0.c **** *
 184:Generated_Source\PSoC5/CapSense_AMuxCH0.c **** * Parameters:
 185:Generated_Source\PSoC5/CapSense_AMuxCH0.c **** *  void
 186:Generated_Source\PSoC5/CapSense_AMuxCH0.c **** *
 187:Generated_Source\PSoC5/CapSense_AMuxCH0.c **** * Return:
 188:Generated_Source\PSoC5/CapSense_AMuxCH0.c **** *  void
 189:Generated_Source\PSoC5/CapSense_AMuxCH0.c **** *
 190:Generated_Source\PSoC5/CapSense_AMuxCH0.c **** *******************************************************************************/
 191:Generated_Source\PSoC5/CapSense_AMuxCH0.c **** void CapSense_AMuxCH0_DisconnectAll(void) CYREENTRANT
 192:Generated_Source\PSoC5/CapSense_AMuxCH0.c **** {
  71              		.loc 1 192 0
  72              		.cfi_startproc
  73              		@ args = 0, pretend = 0, frame = 0
  74              		@ frame_needed = 0, uses_anonymous_args = 0
  75 0000 10B5     		push	{r4, lr}
  76              		.cfi_def_cfa_offset 8
  77              		.cfi_offset 4, -8
  78              		.cfi_offset 14, -4
  79              	.LVL4:
 193:Generated_Source\PSoC5/CapSense_AMuxCH0.c ****     uint8 chan;
 194:Generated_Source\PSoC5/CapSense_AMuxCH0.c **** 
 195:Generated_Source\PSoC5/CapSense_AMuxCH0.c ****     #if(CapSense_AMuxCH0_MUXTYPE == CapSense_AMuxCH0_MUX_SINGLE)
 196:Generated_Source\PSoC5/CapSense_AMuxCH0.c ****         for(chan = 0; chan < CapSense_AMuxCH0_CHANNELS ; chan++)
  80              		.loc 1 196 0
  81 0002 0024     		movs	r4, #0
  82 0004 04E0     		b	.L7
  83              	.LVL5:
  84              	.L8:
 197:Generated_Source\PSoC5/CapSense_AMuxCH0.c ****         {
 198:Generated_Source\PSoC5/CapSense_AMuxCH0.c ****             CapSense_AMuxCH0_Unset(chan);
  85              		.loc 1 198 0 discriminator 3
  86 0006 2046     		mov	r0, r4
  87 0008 FFF7FEFF 		bl	CapSense_AMuxCH0_Unset
ARM GAS  C:\Users\JEFFSN~1\AppData\Local\Temp\ccvGkY7A.s 			page 6


  88              	.LVL6:
 196:Generated_Source\PSoC5/CapSense_AMuxCH0.c ****         {
  89              		.loc 1 196 0 discriminator 3
  90 000c 0134     		adds	r4, r4, #1
  91              	.LVL7:
  92 000e E4B2     		uxtb	r4, r4
  93              	.LVL8:
  94              	.L7:
 196:Generated_Source\PSoC5/CapSense_AMuxCH0.c ****         {
  95              		.loc 1 196 0 is_stmt 0 discriminator 1
  96 0010 1C2C     		cmp	r4, #28
  97 0012 F8D9     		bls	.L8
 199:Generated_Source\PSoC5/CapSense_AMuxCH0.c ****         }
 200:Generated_Source\PSoC5/CapSense_AMuxCH0.c ****     #else
 201:Generated_Source\PSoC5/CapSense_AMuxCH0.c ****         for(chan = 0; chan < CapSense_AMuxCH0_CHANNELS ; chan++)
 202:Generated_Source\PSoC5/CapSense_AMuxCH0.c ****         {
 203:Generated_Source\PSoC5/CapSense_AMuxCH0.c ****             CapSense_AMuxCH0_CYAMUXSIDE_A_Unset(chan);
 204:Generated_Source\PSoC5/CapSense_AMuxCH0.c ****             CapSense_AMuxCH0_CYAMUXSIDE_B_Unset(chan);
 205:Generated_Source\PSoC5/CapSense_AMuxCH0.c ****         }
 206:Generated_Source\PSoC5/CapSense_AMuxCH0.c ****     #endif  /* End (CapSense_AMuxCH0_MUXTYPE == CapSense_AMuxCH0_MUX_SINGLE) */
 207:Generated_Source\PSoC5/CapSense_AMuxCH0.c **** }
  98              		.loc 1 207 0 is_stmt 1
  99 0014 10BD     		pop	{r4, pc}
 100              		.cfi_endproc
 101              	.LFE5:
 102              		.size	CapSense_AMuxCH0_DisconnectAll, .-CapSense_AMuxCH0_DisconnectAll
 103 0016 00BF     		.section	.text.CapSense_AMuxCH0_Start,"ax",%progbits
 104              		.align	2
 105              		.global	CapSense_AMuxCH0_Start
 106              		.thumb
 107              		.thumb_func
 108              		.type	CapSense_AMuxCH0_Start, %function
 109              	CapSense_AMuxCH0_Start:
 110              	.LFB0:
  38:Generated_Source\PSoC5/CapSense_AMuxCH0.c ****     CapSense_AMuxCH0_DisconnectAll();
 111              		.loc 1 38 0
 112              		.cfi_startproc
 113              		@ args = 0, pretend = 0, frame = 0
 114              		@ frame_needed = 0, uses_anonymous_args = 0
 115 0000 08B5     		push	{r3, lr}
 116              		.cfi_def_cfa_offset 8
 117              		.cfi_offset 3, -8
 118              		.cfi_offset 14, -4
  39:Generated_Source\PSoC5/CapSense_AMuxCH0.c ****     CapSense_AMuxCH0_initVar = 1u;
 119              		.loc 1 39 0
 120 0002 FFF7FEFF 		bl	CapSense_AMuxCH0_DisconnectAll
 121              	.LVL9:
  40:Generated_Source\PSoC5/CapSense_AMuxCH0.c **** }
 122              		.loc 1 40 0
 123 0006 0122     		movs	r2, #1
 124 0008 014B     		ldr	r3, .L12
 125 000a 1A70     		strb	r2, [r3]
 126 000c 08BD     		pop	{r3, pc}
 127              	.L13:
 128 000e 00BF     		.align	2
 129              	.L12:
 130 0010 00000000 		.word	.LANCHOR1
ARM GAS  C:\Users\JEFFSN~1\AppData\Local\Temp\ccvGkY7A.s 			page 7


 131              		.cfi_endproc
 132              	.LFE0:
 133              		.size	CapSense_AMuxCH0_Start, .-CapSense_AMuxCH0_Start
 134              		.section	.text.CapSense_AMuxCH0_Init,"ax",%progbits
 135              		.align	2
 136              		.global	CapSense_AMuxCH0_Init
 137              		.thumb
 138              		.thumb_func
 139              		.type	CapSense_AMuxCH0_Init, %function
 140              	CapSense_AMuxCH0_Init:
 141              	.LFB1:
  58:Generated_Source\PSoC5/CapSense_AMuxCH0.c ****     CapSense_AMuxCH0_DisconnectAll();
 142              		.loc 1 58 0
 143              		.cfi_startproc
 144              		@ args = 0, pretend = 0, frame = 0
 145              		@ frame_needed = 0, uses_anonymous_args = 0
 146 0000 08B5     		push	{r3, lr}
 147              		.cfi_def_cfa_offset 8
 148              		.cfi_offset 3, -8
 149              		.cfi_offset 14, -4
  59:Generated_Source\PSoC5/CapSense_AMuxCH0.c **** }
 150              		.loc 1 59 0
 151 0002 FFF7FEFF 		bl	CapSense_AMuxCH0_DisconnectAll
 152              	.LVL10:
 153 0006 08BD     		pop	{r3, pc}
 154              		.cfi_endproc
 155              	.LFE1:
 156              		.size	CapSense_AMuxCH0_Init, .-CapSense_AMuxCH0_Init
 157              		.section	.text.CapSense_AMuxCH0_Stop,"ax",%progbits
 158              		.align	2
 159              		.global	CapSense_AMuxCH0_Stop
 160              		.thumb
 161              		.thumb_func
 162              		.type	CapSense_AMuxCH0_Stop, %function
 163              	CapSense_AMuxCH0_Stop:
 164              	.LFB2:
  77:Generated_Source\PSoC5/CapSense_AMuxCH0.c ****     CapSense_AMuxCH0_DisconnectAll();
 165              		.loc 1 77 0
 166              		.cfi_startproc
 167              		@ args = 0, pretend = 0, frame = 0
 168              		@ frame_needed = 0, uses_anonymous_args = 0
 169 0000 08B5     		push	{r3, lr}
 170              		.cfi_def_cfa_offset 8
 171              		.cfi_offset 3, -8
 172              		.cfi_offset 14, -4
  78:Generated_Source\PSoC5/CapSense_AMuxCH0.c **** }
 173              		.loc 1 78 0
 174 0002 FFF7FEFF 		bl	CapSense_AMuxCH0_DisconnectAll
 175              	.LVL11:
 176 0006 08BD     		pop	{r3, pc}
 177              		.cfi_endproc
 178              	.LFE2:
 179              		.size	CapSense_AMuxCH0_Stop, .-CapSense_AMuxCH0_Stop
 180              		.section	.text.CapSense_AMuxCH0_Select,"ax",%progbits
 181              		.align	2
 182              		.global	CapSense_AMuxCH0_Select
 183              		.thumb
ARM GAS  C:\Users\JEFFSN~1\AppData\Local\Temp\ccvGkY7A.s 			page 8


 184              		.thumb_func
 185              		.type	CapSense_AMuxCH0_Select, %function
 186              	CapSense_AMuxCH0_Select:
 187              	.LFB3:
  97:Generated_Source\PSoC5/CapSense_AMuxCH0.c ****     CapSense_AMuxCH0_DisconnectAll();        /* Disconnect all previous connections */
 188              		.loc 1 97 0
 189              		.cfi_startproc
 190              		@ args = 0, pretend = 0, frame = 0
 191              		@ frame_needed = 0, uses_anonymous_args = 0
 192              	.LVL12:
 193 0000 10B5     		push	{r4, lr}
 194              		.cfi_def_cfa_offset 8
 195              		.cfi_offset 4, -8
 196              		.cfi_offset 14, -4
 197 0002 0446     		mov	r4, r0
  98:Generated_Source\PSoC5/CapSense_AMuxCH0.c ****     CapSense_AMuxCH0_Connect(channel);       /* Make the given selection */
 198              		.loc 1 98 0
 199 0004 FFF7FEFF 		bl	CapSense_AMuxCH0_DisconnectAll
 200              	.LVL13:
  99:Generated_Source\PSoC5/CapSense_AMuxCH0.c ****     CapSense_AMuxCH0_lastChannel = channel;  /* Update last channel */
 201              		.loc 1 99 0
 202 0008 2046     		mov	r0, r4
 203 000a FFF7FEFF 		bl	CapSense_AMuxCH0_Set
 204              	.LVL14:
 100:Generated_Source\PSoC5/CapSense_AMuxCH0.c **** }
 205              		.loc 1 100 0
 206 000e 014B     		ldr	r3, .L20
 207 0010 1C70     		strb	r4, [r3]
 208 0012 10BD     		pop	{r4, pc}
 209              	.L21:
 210              		.align	2
 211              	.L20:
 212 0014 00000000 		.word	.LANCHOR0
 213              		.cfi_endproc
 214              	.LFE3:
 215              		.size	CapSense_AMuxCH0_Select, .-CapSense_AMuxCH0_Select
 216              		.global	CapSense_AMuxCH0_lastChannel
 217              		.global	CapSense_AMuxCH0_initVar
 218              		.data
 219              		.set	.LANCHOR0,. + 0
 220              		.type	CapSense_AMuxCH0_lastChannel, %object
 221              		.size	CapSense_AMuxCH0_lastChannel, 1
 222              	CapSense_AMuxCH0_lastChannel:
 223 0000 FF       		.byte	-1
 224              		.bss
 225              		.set	.LANCHOR1,. + 0
 226              		.type	CapSense_AMuxCH0_initVar, %object
 227              		.size	CapSense_AMuxCH0_initVar, 1
 228              	CapSense_AMuxCH0_initVar:
 229 0000 00       		.space	1
 230              		.text
 231              	.Letext0:
 232              		.file 2 "Generated_Source\\PSoC5\\cyfitter_cfg.h"
 233              		.file 3 "Generated_Source\\PSoC5\\cytypes.h"