ARM GAS  C:\Users\JEFFSN~1\AppData\Local\Temp\ccgy8vJl.s 			page 1


   1              		.syntax unified
   2              		.cpu cortex-m3
   3              		.fpu softvfp
   4              		.eabi_attribute 20, 1
   5              		.eabi_attribute 21, 1
   6              		.eabi_attribute 23, 3
   7              		.eabi_attribute 24, 1
   8              		.eabi_attribute 25, 1
   9              		.eabi_attribute 26, 1
  10              		.eabi_attribute 30, 1
  11              		.eabi_attribute 34, 1
  12              		.eabi_attribute 18, 4
  13              		.thumb
  14              		.syntax unified
  15              		.file	"CapSense_1_PM.c"
  16              		.text
  17              	.Ltext0:
  18              		.cfi_sections	.debug_frame
  19              		.section	.text.CapSense_1_SaveConfig,"ax",%progbits
  20              		.align	2
  21              		.global	CapSense_1_SaveConfig
  22              		.thumb
  23              		.thumb_func
  24              		.type	CapSense_1_SaveConfig, %function
  25              	CapSense_1_SaveConfig:
  26              	.LFB0:
  27              		.file 1 "Generated_Source\\PSoC5\\CapSense_1_PM.c"
   1:Generated_Source\PSoC5/CapSense_1_PM.c **** /*******************************************************************************
   2:Generated_Source\PSoC5/CapSense_1_PM.c **** * File Name: CapSense_1_PM.c
   3:Generated_Source\PSoC5/CapSense_1_PM.c **** * Version 3.50
   4:Generated_Source\PSoC5/CapSense_1_PM.c **** *
   5:Generated_Source\PSoC5/CapSense_1_PM.c **** * Description:
   6:Generated_Source\PSoC5/CapSense_1_PM.c **** *  This file provides Sleep APIs for CapSense CSD Component.
   7:Generated_Source\PSoC5/CapSense_1_PM.c **** *
   8:Generated_Source\PSoC5/CapSense_1_PM.c **** * Note:
   9:Generated_Source\PSoC5/CapSense_1_PM.c **** *
  10:Generated_Source\PSoC5/CapSense_1_PM.c **** ********************************************************************************
  11:Generated_Source\PSoC5/CapSense_1_PM.c **** * Copyright 2008-2013, Cypress Semiconductor Corporation.  All rights reserved.
  12:Generated_Source\PSoC5/CapSense_1_PM.c **** * You may use this file only in accordance with the license, terms, conditions, 
  13:Generated_Source\PSoC5/CapSense_1_PM.c **** * disclaimers, and limitations in the end user license agreement accompanying 
  14:Generated_Source\PSoC5/CapSense_1_PM.c **** * the software package with which this file was provided.
  15:Generated_Source\PSoC5/CapSense_1_PM.c **** *******************************************************************************/
  16:Generated_Source\PSoC5/CapSense_1_PM.c **** 
  17:Generated_Source\PSoC5/CapSense_1_PM.c **** #include "CapSense_1.h"
  18:Generated_Source\PSoC5/CapSense_1_PM.c **** 
  19:Generated_Source\PSoC5/CapSense_1_PM.c **** CapSense_1_BACKUP_STRUCT CapSense_1_backup =
  20:Generated_Source\PSoC5/CapSense_1_PM.c **** {   
  21:Generated_Source\PSoC5/CapSense_1_PM.c ****     0x00u, /* enableState; */
  22:Generated_Source\PSoC5/CapSense_1_PM.c ****     
  23:Generated_Source\PSoC5/CapSense_1_PM.c **** };
  24:Generated_Source\PSoC5/CapSense_1_PM.c **** 
  25:Generated_Source\PSoC5/CapSense_1_PM.c **** 
  26:Generated_Source\PSoC5/CapSense_1_PM.c **** /*******************************************************************************
  27:Generated_Source\PSoC5/CapSense_1_PM.c **** * Function Name: CapSense_1_SaveConfig
  28:Generated_Source\PSoC5/CapSense_1_PM.c **** ********************************************************************************
  29:Generated_Source\PSoC5/CapSense_1_PM.c **** *
  30:Generated_Source\PSoC5/CapSense_1_PM.c **** * Summary:
ARM GAS  C:\Users\JEFFSN~1\AppData\Local\Temp\ccgy8vJl.s 			page 2


  31:Generated_Source\PSoC5/CapSense_1_PM.c **** *  Saves customer configuration of CapSense none-retention registers. Resets 
  32:Generated_Source\PSoC5/CapSense_1_PM.c **** *  all sensors to an inactive state.
  33:Generated_Source\PSoC5/CapSense_1_PM.c **** *
  34:Generated_Source\PSoC5/CapSense_1_PM.c **** * Parameters:
  35:Generated_Source\PSoC5/CapSense_1_PM.c **** *  None
  36:Generated_Source\PSoC5/CapSense_1_PM.c **** *
  37:Generated_Source\PSoC5/CapSense_1_PM.c **** * Return:
  38:Generated_Source\PSoC5/CapSense_1_PM.c **** *  None
  39:Generated_Source\PSoC5/CapSense_1_PM.c **** *
  40:Generated_Source\PSoC5/CapSense_1_PM.c **** * Side Effects:
  41:Generated_Source\PSoC5/CapSense_1_PM.c **** *  Function CapSense_1_SaveConfig disconnects all sensors from the
  42:Generated_Source\PSoC5/CapSense_1_PM.c **** *  Analog MUX Bus and puts them into inactive state. Call this function
  43:Generated_Source\PSoC5/CapSense_1_PM.c **** *  during the active scan can cause unpredictable component behavior.
  44:Generated_Source\PSoC5/CapSense_1_PM.c **** *
  45:Generated_Source\PSoC5/CapSense_1_PM.c **** * Note:
  46:Generated_Source\PSoC5/CapSense_1_PM.c **** *  This function should be called after completion of all scans.
  47:Generated_Source\PSoC5/CapSense_1_PM.c **** *
  48:Generated_Source\PSoC5/CapSense_1_PM.c **** * Global Variables:
  49:Generated_Source\PSoC5/CapSense_1_PM.c **** *  CapSense_1_backup - used to save component state before enter sleep 
  50:Generated_Source\PSoC5/CapSense_1_PM.c **** *  mode and none-retention registers.
  51:Generated_Source\PSoC5/CapSense_1_PM.c **** *
  52:Generated_Source\PSoC5/CapSense_1_PM.c **** * Reentrant:
  53:Generated_Source\PSoC5/CapSense_1_PM.c **** *  Yes.
  54:Generated_Source\PSoC5/CapSense_1_PM.c **** *
  55:Generated_Source\PSoC5/CapSense_1_PM.c **** *******************************************************************************/
  56:Generated_Source\PSoC5/CapSense_1_PM.c **** void CapSense_1_SaveConfig(void) 
  57:Generated_Source\PSoC5/CapSense_1_PM.c **** {    
  28              		.loc 1 57 0
  29              		.cfi_startproc
  30              		@ args = 0, pretend = 0, frame = 0
  31              		@ frame_needed = 0, uses_anonymous_args = 0
  32 0000 08B5     		push	{r3, lr}
  33              		.cfi_def_cfa_offset 8
  34              		.cfi_offset 3, -8
  35              		.cfi_offset 14, -4
  58:Generated_Source\PSoC5/CapSense_1_PM.c **** 
  59:Generated_Source\PSoC5/CapSense_1_PM.c ****     /* Set CONTROL_REG */
  60:Generated_Source\PSoC5/CapSense_1_PM.c ****     CapSense_1_backup.ctrlReg = CapSense_1_CONTROL_REG;
  36              		.loc 1 60 0
  37 0002 034B     		ldr	r3, .L3
  38 0004 1A78     		ldrb	r2, [r3]	@ zero_extendqisi2
  39 0006 034B     		ldr	r3, .L3+4
  40 0008 5A70     		strb	r2, [r3, #1]
  61:Generated_Source\PSoC5/CapSense_1_PM.c **** 
  62:Generated_Source\PSoC5/CapSense_1_PM.c ****     /* Clear all sensors */
  63:Generated_Source\PSoC5/CapSense_1_PM.c ****     CapSense_1_ClearSensors();
  41              		.loc 1 63 0
  42 000a FFF7FEFF 		bl	CapSense_1_ClearSensors
  43              	.LVL0:
  44 000e 08BD     		pop	{r3, pc}
  45              	.L4:
  46              		.align	2
  47              	.L3:
  48 0010 7A640040 		.word	1073767546
  49 0014 00000000 		.word	.LANCHOR0
  50              		.cfi_endproc
  51              	.LFE0:
ARM GAS  C:\Users\JEFFSN~1\AppData\Local\Temp\ccgy8vJl.s 			page 3


  52              		.size	CapSense_1_SaveConfig, .-CapSense_1_SaveConfig
  53              		.section	.text.CapSense_1_Sleep,"ax",%progbits
  54              		.align	2
  55              		.global	CapSense_1_Sleep
  56              		.thumb
  57              		.thumb_func
  58              		.type	CapSense_1_Sleep, %function
  59              	CapSense_1_Sleep:
  60              	.LFB1:
  64:Generated_Source\PSoC5/CapSense_1_PM.c ****     
  65:Generated_Source\PSoC5/CapSense_1_PM.c ****     /* The pins disable is customer concern: Cmod and Rb */
  66:Generated_Source\PSoC5/CapSense_1_PM.c **** }
  67:Generated_Source\PSoC5/CapSense_1_PM.c **** 
  68:Generated_Source\PSoC5/CapSense_1_PM.c **** 
  69:Generated_Source\PSoC5/CapSense_1_PM.c **** /*******************************************************************************
  70:Generated_Source\PSoC5/CapSense_1_PM.c **** * Function Name: CapSense_1_Sleep
  71:Generated_Source\PSoC5/CapSense_1_PM.c **** ********************************************************************************
  72:Generated_Source\PSoC5/CapSense_1_PM.c **** *
  73:Generated_Source\PSoC5/CapSense_1_PM.c **** * Summary:
  74:Generated_Source\PSoC5/CapSense_1_PM.c **** *  Disables Active mode power template bits for number of component used within 
  75:Generated_Source\PSoC5/CapSense_1_PM.c **** *  CapSense. Calls CapSense_1_SaveConfig() function to save customer 
  76:Generated_Source\PSoC5/CapSense_1_PM.c **** *  configuration of CapSense none-retention registers and resets all sensors 
  77:Generated_Source\PSoC5/CapSense_1_PM.c **** *  to an inactive state.
  78:Generated_Source\PSoC5/CapSense_1_PM.c **** *
  79:Generated_Source\PSoC5/CapSense_1_PM.c **** * Parameters:
  80:Generated_Source\PSoC5/CapSense_1_PM.c **** *  None
  81:Generated_Source\PSoC5/CapSense_1_PM.c **** *
  82:Generated_Source\PSoC5/CapSense_1_PM.c **** * Return:
  83:Generated_Source\PSoC5/CapSense_1_PM.c **** *  None
  84:Generated_Source\PSoC5/CapSense_1_PM.c **** *
  85:Generated_Source\PSoC5/CapSense_1_PM.c **** * Side Effects:
  86:Generated_Source\PSoC5/CapSense_1_PM.c **** *  Function CapSense_1_Sleep disconnects all sensors from the
  87:Generated_Source\PSoC5/CapSense_1_PM.c **** *  Analog MUX Bus and puts them into inactive state. Call this function
  88:Generated_Source\PSoC5/CapSense_1_PM.c **** *  during the active scan can cause unpredictable component behavior.
  89:Generated_Source\PSoC5/CapSense_1_PM.c **** *
  90:Generated_Source\PSoC5/CapSense_1_PM.c **** * Note:
  91:Generated_Source\PSoC5/CapSense_1_PM.c **** *  This function should be called after completion of all scans.
  92:Generated_Source\PSoC5/CapSense_1_PM.c **** *
  93:Generated_Source\PSoC5/CapSense_1_PM.c **** * Global Variables:
  94:Generated_Source\PSoC5/CapSense_1_PM.c **** *  CapSense_1_backup - used to save component state before enter sleep 
  95:Generated_Source\PSoC5/CapSense_1_PM.c **** *  mode and none-retention registers.
  96:Generated_Source\PSoC5/CapSense_1_PM.c **** *
  97:Generated_Source\PSoC5/CapSense_1_PM.c **** * Reentrant:
  98:Generated_Source\PSoC5/CapSense_1_PM.c **** *  No
  99:Generated_Source\PSoC5/CapSense_1_PM.c **** *
 100:Generated_Source\PSoC5/CapSense_1_PM.c **** *******************************************************************************/
 101:Generated_Source\PSoC5/CapSense_1_PM.c **** void CapSense_1_Sleep(void) 
 102:Generated_Source\PSoC5/CapSense_1_PM.c **** {
  61              		.loc 1 102 0
  62              		.cfi_startproc
  63              		@ args = 0, pretend = 0, frame = 0
  64              		@ frame_needed = 0, uses_anonymous_args = 0
  65 0000 08B5     		push	{r3, lr}
  66              		.cfi_def_cfa_offset 8
  67              		.cfi_offset 3, -8
  68              		.cfi_offset 14, -4
 103:Generated_Source\PSoC5/CapSense_1_PM.c ****     /* Check and save enable state */
ARM GAS  C:\Users\JEFFSN~1\AppData\Local\Temp\ccgy8vJl.s 			page 4


 104:Generated_Source\PSoC5/CapSense_1_PM.c ****     if(CapSense_1_IS_CAPSENSE_ENABLE(CapSense_1_CONTROL_REG))
  69              		.loc 1 104 0
  70 0002 084B     		ldr	r3, .L9
  71 0004 1B78     		ldrb	r3, [r3]	@ zero_extendqisi2
  72 0006 13F0800F 		tst	r3, #128
  73 000a 05D0     		beq	.L6
 105:Generated_Source\PSoC5/CapSense_1_PM.c ****     {
 106:Generated_Source\PSoC5/CapSense_1_PM.c ****         CapSense_1_backup.enableState = 1u;
  74              		.loc 1 106 0
  75 000c 0122     		movs	r2, #1
  76 000e 064B     		ldr	r3, .L9+4
  77 0010 1A70     		strb	r2, [r3]
 107:Generated_Source\PSoC5/CapSense_1_PM.c ****         CapSense_1_Stop();
  78              		.loc 1 107 0
  79 0012 FFF7FEFF 		bl	CapSense_1_Stop
  80              	.LVL1:
  81 0016 02E0     		b	.L7
  82              	.L6:
 108:Generated_Source\PSoC5/CapSense_1_PM.c ****     }
 109:Generated_Source\PSoC5/CapSense_1_PM.c ****     else
 110:Generated_Source\PSoC5/CapSense_1_PM.c ****     {
 111:Generated_Source\PSoC5/CapSense_1_PM.c ****         CapSense_1_backup.enableState = 0u;
  83              		.loc 1 111 0
  84 0018 0022     		movs	r2, #0
  85 001a 034B     		ldr	r3, .L9+4
  86 001c 1A70     		strb	r2, [r3]
  87              	.L7:
 112:Generated_Source\PSoC5/CapSense_1_PM.c ****     }
 113:Generated_Source\PSoC5/CapSense_1_PM.c ****     
 114:Generated_Source\PSoC5/CapSense_1_PM.c ****     CapSense_1_SaveConfig();
  88              		.loc 1 114 0
  89 001e FFF7FEFF 		bl	CapSense_1_SaveConfig
  90              	.LVL2:
  91 0022 08BD     		pop	{r3, pc}
  92              	.L10:
  93              		.align	2
  94              	.L9:
  95 0024 7A640040 		.word	1073767546
  96 0028 00000000 		.word	.LANCHOR0
  97              		.cfi_endproc
  98              	.LFE1:
  99              		.size	CapSense_1_Sleep, .-CapSense_1_Sleep
 100              		.section	.text.CapSense_1_RestoreConfig,"ax",%progbits
 101              		.align	2
 102              		.global	CapSense_1_RestoreConfig
 103              		.thumb
 104              		.thumb_func
 105              		.type	CapSense_1_RestoreConfig, %function
 106              	CapSense_1_RestoreConfig:
 107              	.LFB2:
 115:Generated_Source\PSoC5/CapSense_1_PM.c **** }
 116:Generated_Source\PSoC5/CapSense_1_PM.c **** 
 117:Generated_Source\PSoC5/CapSense_1_PM.c **** 
 118:Generated_Source\PSoC5/CapSense_1_PM.c **** /*******************************************************************************
 119:Generated_Source\PSoC5/CapSense_1_PM.c **** * Function Name: CapSense_1_RestoreConfig
 120:Generated_Source\PSoC5/CapSense_1_PM.c **** ********************************************************************************
 121:Generated_Source\PSoC5/CapSense_1_PM.c **** *
ARM GAS  C:\Users\JEFFSN~1\AppData\Local\Temp\ccgy8vJl.s 			page 5


 122:Generated_Source\PSoC5/CapSense_1_PM.c **** * Summary:
 123:Generated_Source\PSoC5/CapSense_1_PM.c **** *  Restores CapSense configuration and non-retention register values.
 124:Generated_Source\PSoC5/CapSense_1_PM.c **** *
 125:Generated_Source\PSoC5/CapSense_1_PM.c **** * Parameters:
 126:Generated_Source\PSoC5/CapSense_1_PM.c **** *  None
 127:Generated_Source\PSoC5/CapSense_1_PM.c **** *
 128:Generated_Source\PSoC5/CapSense_1_PM.c **** * Return:
 129:Generated_Source\PSoC5/CapSense_1_PM.c **** *  None
 130:Generated_Source\PSoC5/CapSense_1_PM.c **** *
 131:Generated_Source\PSoC5/CapSense_1_PM.c **** * Side Effects:
 132:Generated_Source\PSoC5/CapSense_1_PM.c **** *  Must be called only after CapSense_1_SaveConfig() routine. Otherwise 
 133:Generated_Source\PSoC5/CapSense_1_PM.c **** *  the component configuration will be overwritten with its initial setting.
 134:Generated_Source\PSoC5/CapSense_1_PM.c **** *  This finction modifies the CONTROL_REG register. 
 135:Generated_Source\PSoC5/CapSense_1_PM.c **** *
 136:Generated_Source\PSoC5/CapSense_1_PM.c **** * Note:
 137:Generated_Source\PSoC5/CapSense_1_PM.c **** *  This function should be called after completion of all scans.
 138:Generated_Source\PSoC5/CapSense_1_PM.c **** *
 139:Generated_Source\PSoC5/CapSense_1_PM.c **** * Global Variables:
 140:Generated_Source\PSoC5/CapSense_1_PM.c **** *  CapSense_1_backup - used to save component state before enter sleep 
 141:Generated_Source\PSoC5/CapSense_1_PM.c **** *  mode and none-retention registers.
 142:Generated_Source\PSoC5/CapSense_1_PM.c **** *
 143:Generated_Source\PSoC5/CapSense_1_PM.c **** *******************************************************************************/
 144:Generated_Source\PSoC5/CapSense_1_PM.c **** void CapSense_1_RestoreConfig(void) 
 145:Generated_Source\PSoC5/CapSense_1_PM.c **** {       
 108              		.loc 1 145 0
 109              		.cfi_startproc
 110              		@ args = 0, pretend = 0, frame = 0
 111              		@ frame_needed = 0, uses_anonymous_args = 0
 112              		@ link register save eliminated.
 146:Generated_Source\PSoC5/CapSense_1_PM.c ****     /* Set PRS */
 147:Generated_Source\PSoC5/CapSense_1_PM.c ****     #if (CapSense_1_PRS_OPTIONS == CapSense_1_PRS_8BITS)        
 148:Generated_Source\PSoC5/CapSense_1_PM.c ****         /* Write FIFO with seed */
 149:Generated_Source\PSoC5/CapSense_1_PM.c ****         CapSense_1_SEED_COPY_REG = CapSense_1_MEASURE_FULL_RANGE_LOW;               /* F0 register 
 150:Generated_Source\PSoC5/CapSense_1_PM.c ****     
 151:Generated_Source\PSoC5/CapSense_1_PM.c ****     #elif (CapSense_1_PRS_OPTIONS == CapSense_1_PRS_16BITS)
 152:Generated_Source\PSoC5/CapSense_1_PM.c ****         /* Write FIFO with seed */
 153:Generated_Source\PSoC5/CapSense_1_PM.c ****         CY_SET_REG16(CapSense_1_SEED_COPY_PTR, CapSense_1_MEASURE_FULL_RANGE);      /* F0 register 
 113              		.loc 1 153 0
 114 0000 4FF6FF72 		movw	r2, #65535
 115 0004 084B     		ldr	r3, .L12
 116 0006 1A80     		strh	r2, [r3]	@ movhi
 154:Generated_Source\PSoC5/CapSense_1_PM.c ****                 
 155:Generated_Source\PSoC5/CapSense_1_PM.c ****     #elif (CapSense_1_PRS_OPTIONS == CapSense_1_PRS_16BITS_4X)
 156:Generated_Source\PSoC5/CapSense_1_PM.c ****         
 157:Generated_Source\PSoC5/CapSense_1_PM.c ****         /* Write FIFO with seed */
 158:Generated_Source\PSoC5/CapSense_1_PM.c ****         CapSense_1_SEED_COPY_A__F1_REG = CapSense_1_MEASURE_FULL_RANGE_LOW;         /* F0 register 
 159:Generated_Source\PSoC5/CapSense_1_PM.c ****         CapSense_1_SEED_COPY_A__F0_REG =CapSense_1_MEASURE_FULL_RANGE_LOW;          /* F1 register 
 160:Generated_Source\PSoC5/CapSense_1_PM.c ****         
 161:Generated_Source\PSoC5/CapSense_1_PM.c ****     #else
 162:Generated_Source\PSoC5/CapSense_1_PM.c ****         /* Do nothing = config without PRS */
 163:Generated_Source\PSoC5/CapSense_1_PM.c ****     #endif  /* (CapSense_1_PRS_OPTIONS == CapSense_1_PRS_8BITS) */
 164:Generated_Source\PSoC5/CapSense_1_PM.c ****     
 165:Generated_Source\PSoC5/CapSense_1_PM.c ****     /* Set the Measure */
 166:Generated_Source\PSoC5/CapSense_1_PM.c ****     #if (CapSense_1_IMPLEMENTATION_CH0 == CapSense_1_MEASURE_IMPLEMENTATION_FF)
 167:Generated_Source\PSoC5/CapSense_1_PM.c ****         /* Window PWM  - FF Timer register are retention */
 168:Generated_Source\PSoC5/CapSense_1_PM.c ****         /* Raw Counter - FF Timer register are retention */
 169:Generated_Source\PSoC5/CapSense_1_PM.c ****     #else
ARM GAS  C:\Users\JEFFSN~1\AppData\Local\Temp\ccgy8vJl.s 			page 6


 170:Generated_Source\PSoC5/CapSense_1_PM.c ****         
 171:Generated_Source\PSoC5/CapSense_1_PM.c ****         /* Window PWM */
 172:Generated_Source\PSoC5/CapSense_1_PM.c ****         CapSense_1_PWM_CH0_PERIOD_LO_REG    = CapSense_1_MEASURE_FULL_RANGE_LOW;        /* F0 regis
 117              		.loc 1 172 0
 118 0008 FF23     		movs	r3, #255
 119 000a 0849     		ldr	r1, .L12+4
 120 000c 0A70     		strb	r2, [r1]
 173:Generated_Source\PSoC5/CapSense_1_PM.c ****         
 174:Generated_Source\PSoC5/CapSense_1_PM.c ****         /* Raw Counter */
 175:Generated_Source\PSoC5/CapSense_1_PM.c ****         CapSense_1_RAW_CH0_PERIOD_HI_REG    = CapSense_1_MEASURE_FULL_RANGE_LOW;        /* F1 regis
 121              		.loc 1 175 0
 122 000e 084A     		ldr	r2, .L12+8
 123 0010 1370     		strb	r3, [r2]
 176:Generated_Source\PSoC5/CapSense_1_PM.c ****         CapSense_1_RAW_CH0_PERIOD_LO_REG    = CapSense_1_MEASURE_FULL_RANGE_LOW;        /* F0 regis
 124              		.loc 1 176 0
 125 0012 103A     		subs	r2, r2, #16
 126 0014 1370     		strb	r3, [r2]
 177:Generated_Source\PSoC5/CapSense_1_PM.c ****     
 178:Generated_Source\PSoC5/CapSense_1_PM.c ****     #endif  /* (CapSense_1_IMPLEMENTATION_CH0 == CapSense_1_MEASURE_IMPLEMENTATION_FF) */ 
 179:Generated_Source\PSoC5/CapSense_1_PM.c ****     
 180:Generated_Source\PSoC5/CapSense_1_PM.c ****     #if (CapSense_1_DESIGN_TYPE == CapSense_1_TWO_CHANNELS_DESIGN)
 181:Generated_Source\PSoC5/CapSense_1_PM.c ****         #if (CapSense_1_IMPLEMENTATION_CH1 == CapSense_1_MEASURE_IMPLEMENTATION_FF)
 182:Generated_Source\PSoC5/CapSense_1_PM.c ****             /* Window PWM  - FF Timer register are retention */
 183:Generated_Source\PSoC5/CapSense_1_PM.c ****             /* Raw Counter - FF Timer register are retention */
 184:Generated_Source\PSoC5/CapSense_1_PM.c ****         #else
 185:Generated_Source\PSoC5/CapSense_1_PM.c ****             
 186:Generated_Source\PSoC5/CapSense_1_PM.c ****             /* Window PWM */
 187:Generated_Source\PSoC5/CapSense_1_PM.c ****             CapSense_1_PWM_CH1_PERIOD_LO_REG    = CapSense_1_MEASURE_FULL_RANGE_LOW;       /* F0 re
 188:Generated_Source\PSoC5/CapSense_1_PM.c ****             
 189:Generated_Source\PSoC5/CapSense_1_PM.c ****             /* Raw Counter */
 190:Generated_Source\PSoC5/CapSense_1_PM.c ****             CapSense_1_RAW_CH1_PERIOD_HI_REG    = CapSense_1_MEASURE_FULL_RANGE_LOW;       /* F1 re
 191:Generated_Source\PSoC5/CapSense_1_PM.c ****             CapSense_1_RAW_CH1_PERIOD_LO_REG    = CapSense_1_MEASURE_FULL_RANGE_LOW;       /* F0 re
 192:Generated_Source\PSoC5/CapSense_1_PM.c ****             
 193:Generated_Source\PSoC5/CapSense_1_PM.c ****         #endif  /* (CapSense_1_IMPLEMENTATION_CH1 == CapSense_1_MEASURE_IMPLEMENTATION_FF) */
 194:Generated_Source\PSoC5/CapSense_1_PM.c ****     
 195:Generated_Source\PSoC5/CapSense_1_PM.c ****     #endif  /* (CapSense_1_DESIGN_TYPE == TWO_CHANNELS_DESIGN)*/
 196:Generated_Source\PSoC5/CapSense_1_PM.c **** 
 197:Generated_Source\PSoC5/CapSense_1_PM.c ****     /* Set CONTROL_REG */
 198:Generated_Source\PSoC5/CapSense_1_PM.c ****     CapSense_1_CONTROL_REG = CapSense_1_backup.ctrlReg;
 127              		.loc 1 198 0
 128 0016 074B     		ldr	r3, .L12+12
 129 0018 5A78     		ldrb	r2, [r3, #1]	@ zero_extendqisi2
 130 001a 074B     		ldr	r3, .L12+16
 131 001c 1A70     		strb	r2, [r3]
 199:Generated_Source\PSoC5/CapSense_1_PM.c **** 
 200:Generated_Source\PSoC5/CapSense_1_PM.c ****     /* Enable window generation */
 201:Generated_Source\PSoC5/CapSense_1_PM.c ****     #if (CapSense_1_DESIGN_TYPE == CapSense_1_ONE_CHANNEL_DESIGN)
 202:Generated_Source\PSoC5/CapSense_1_PM.c ****         CapSense_1_CONTROL_REG |= CapSense_1_CTRL_WINDOW_EN__CH0;
 132              		.loc 1 202 0
 133 001e 1A78     		ldrb	r2, [r3]	@ zero_extendqisi2
 134 0020 42F00402 		orr	r2, r2, #4
 135 0024 1A70     		strb	r2, [r3]
 136 0026 7047     		bx	lr
 137              	.L13:
 138              		.align	2
 139              	.L12:
 140 0028 48640040 		.word	1073767496
ARM GAS  C:\Users\JEFFSN~1\AppData\Local\Temp\ccgy8vJl.s 			page 7


 141 002c 49650040 		.word	1073767753
 142 0030 5A640040 		.word	1073767514
 143 0034 00000000 		.word	.LANCHOR0
 144 0038 7A640040 		.word	1073767546
 145              		.cfi_endproc
 146              	.LFE2:
 147              		.size	CapSense_1_RestoreConfig, .-CapSense_1_RestoreConfig
 148              		.section	.text.CapSense_1_Wakeup,"ax",%progbits
 149              		.align	2
 150              		.global	CapSense_1_Wakeup
 151              		.thumb
 152              		.thumb_func
 153              		.type	CapSense_1_Wakeup, %function
 154              	CapSense_1_Wakeup:
 155              	.LFB3:
 203:Generated_Source\PSoC5/CapSense_1_PM.c ****     #elif (CapSense_1_DESIGN_TYPE == CapSense_1_TWO_CHANNELS_DESIGN) 
 204:Generated_Source\PSoC5/CapSense_1_PM.c ****         CapSense_1_CONTROL_REG |= (CapSense_1_CTRL_WINDOW_EN__CH0 | CapSense_1_CTRL_WINDOW_EN__CH1)
 205:Generated_Source\PSoC5/CapSense_1_PM.c ****     #endif  /* CapSense_1_DESIGN_TYPE */
 206:Generated_Source\PSoC5/CapSense_1_PM.c ****  
 207:Generated_Source\PSoC5/CapSense_1_PM.c ****     /* The pins enable are customer concern: Cmod and Rb */
 208:Generated_Source\PSoC5/CapSense_1_PM.c ****  }
 209:Generated_Source\PSoC5/CapSense_1_PM.c ****  
 210:Generated_Source\PSoC5/CapSense_1_PM.c **** 
 211:Generated_Source\PSoC5/CapSense_1_PM.c **** /*******************************************************************************
 212:Generated_Source\PSoC5/CapSense_1_PM.c **** * Function Name: CapSense_1_Wakeup
 213:Generated_Source\PSoC5/CapSense_1_PM.c **** ********************************************************************************
 214:Generated_Source\PSoC5/CapSense_1_PM.c **** *
 215:Generated_Source\PSoC5/CapSense_1_PM.c **** * Summary:
 216:Generated_Source\PSoC5/CapSense_1_PM.c **** *  Restores CapSense configuration and non-retention register values. 
 217:Generated_Source\PSoC5/CapSense_1_PM.c **** *  Restores enabled state of component by setting Active mode power template 
 218:Generated_Source\PSoC5/CapSense_1_PM.c **** *  bits for number of component used within CapSense.
 219:Generated_Source\PSoC5/CapSense_1_PM.c **** *
 220:Generated_Source\PSoC5/CapSense_1_PM.c **** * Parameters:
 221:Generated_Source\PSoC5/CapSense_1_PM.c **** *  None
 222:Generated_Source\PSoC5/CapSense_1_PM.c **** *
 223:Generated_Source\PSoC5/CapSense_1_PM.c **** * Return:
 224:Generated_Source\PSoC5/CapSense_1_PM.c **** *  None
 225:Generated_Source\PSoC5/CapSense_1_PM.c **** *
 226:Generated_Source\PSoC5/CapSense_1_PM.c **** * Side Effects:
 227:Generated_Source\PSoC5/CapSense_1_PM.c **** *  Must be called only after CapSense_1_SaveConfig() routine. Otherwise 
 228:Generated_Source\PSoC5/CapSense_1_PM.c **** *  the component configuration will be overwritten with its initial setting.
 229:Generated_Source\PSoC5/CapSense_1_PM.c **** *  This finction modifies the CONTROL_REG register. 
 230:Generated_Source\PSoC5/CapSense_1_PM.c **** *
 231:Generated_Source\PSoC5/CapSense_1_PM.c **** * Note:
 232:Generated_Source\PSoC5/CapSense_1_PM.c **** *  This function should be called after completion of all scans.
 233:Generated_Source\PSoC5/CapSense_1_PM.c **** *
 234:Generated_Source\PSoC5/CapSense_1_PM.c **** * Global Variables:
 235:Generated_Source\PSoC5/CapSense_1_PM.c **** *  CapSense_1_backup - used to save component state before enter sleep 
 236:Generated_Source\PSoC5/CapSense_1_PM.c **** *  mode and none-retention registers.
 237:Generated_Source\PSoC5/CapSense_1_PM.c **** *
 238:Generated_Source\PSoC5/CapSense_1_PM.c **** *******************************************************************************/
 239:Generated_Source\PSoC5/CapSense_1_PM.c **** void CapSense_1_Wakeup(void) 
 240:Generated_Source\PSoC5/CapSense_1_PM.c **** {
 156              		.loc 1 240 0
 157              		.cfi_startproc
 158              		@ args = 0, pretend = 0, frame = 0
 159              		@ frame_needed = 0, uses_anonymous_args = 0
ARM GAS  C:\Users\JEFFSN~1\AppData\Local\Temp\ccgy8vJl.s 			page 8


 160 0000 08B5     		push	{r3, lr}
 161              		.cfi_def_cfa_offset 8
 162              		.cfi_offset 3, -8
 163              		.cfi_offset 14, -4
 241:Generated_Source\PSoC5/CapSense_1_PM.c ****     CapSense_1_RestoreConfig();
 164              		.loc 1 241 0
 165 0002 FFF7FEFF 		bl	CapSense_1_RestoreConfig
 166              	.LVL3:
 242:Generated_Source\PSoC5/CapSense_1_PM.c ****     
 243:Generated_Source\PSoC5/CapSense_1_PM.c ****     /* Restore CapSense Enable state */
 244:Generated_Source\PSoC5/CapSense_1_PM.c ****     if (CapSense_1_backup.enableState != 0u)
 167              		.loc 1 244 0
 168 0006 034B     		ldr	r3, .L17
 169 0008 1B78     		ldrb	r3, [r3]	@ zero_extendqisi2
 170 000a 0BB1     		cbz	r3, .L14
 245:Generated_Source\PSoC5/CapSense_1_PM.c ****     {
 246:Generated_Source\PSoC5/CapSense_1_PM.c ****         CapSense_1_Enable();
 171              		.loc 1 246 0
 172 000c FFF7FEFF 		bl	CapSense_1_Enable
 173              	.LVL4:
 174              	.L14:
 175 0010 08BD     		pop	{r3, pc}
 176              	.L18:
 177 0012 00BF     		.align	2
 178              	.L17:
 179 0014 00000000 		.word	.LANCHOR0
 180              		.cfi_endproc
 181              	.LFE3:
 182              		.size	CapSense_1_Wakeup, .-CapSense_1_Wakeup
 183              		.global	CapSense_1_backup
 184              		.bss
 185              		.align	2
 186              		.set	.LANCHOR0,. + 0
 187              		.type	CapSense_1_backup, %object
 188              		.size	CapSense_1_backup, 2
 189              	CapSense_1_backup:
 190 0000 0000     		.space	2
 191              		.text
 192              	.Letext0:
 193              		.file 2 "Generated_Source\\PSoC5\\cytypes.h"
 194              		.file 3 "Generated_Source\\PSoC5\\CapSense_1.h"