ARM GAS  C:\Users\JEFFSN~1\AppData\Local\Temp\ccUrH2Ie.s 			page 1


   1              		.syntax unified
   2              		.cpu cortex-m3
   3              		.fpu softvfp
   4              		.eabi_attribute 20, 1
   5              		.eabi_attribute 21, 1
   6              		.eabi_attribute 23, 3
   7              		.eabi_attribute 24, 1
   8              		.eabi_attribute 25, 1
   9              		.eabi_attribute 26, 1
  10              		.eabi_attribute 30, 1
  11              		.eabi_attribute 34, 1
  12              		.eabi_attribute 18, 4
  13              		.thumb
  14              		.syntax unified
  15              		.file	"main.c"
  16              		.text
  17              	.Ltext0:
  18              		.cfi_sections	.debug_frame
  19              		.section	.text.CapSense_DisplayState,"ax",%progbits
  20              		.align	2
  21              		.global	CapSense_DisplayState
  22              		.thumb
  23              		.thumb_func
  24              		.type	CapSense_DisplayState, %function
  25              	CapSense_DisplayState:
  26              	.LFB64:
  27              		.file 1 "main.c"
   1:main.c        **** /* ========================================
   2:main.c        ****  *
   3:main.c        ****  * Copyright SNYDERPHONICS, 2019
   4:main.c        ****  * All Rights Reserved
   5:main.c        ****  * UNPUBLISHED, LICENSED SOFTWARE.
   6:main.c        ****  *
   7:main.c        ****     SNYDERPHONICS CAPACITIVE SENSING DEV KIT
   8:main.c        ****  *
   9:main.c        ****  * ========================================
  10:main.c        **** */
  11:main.c        **** #include "project.h"
  12:main.c        **** 
  13:main.c        **** 
  14:main.c        **** // create Max patch with documentation
  15:main.c        **** // program two boards!
  16:main.c        **** // ship those boards
  17:main.c        **** 
  18:main.c        **** 
  19:main.c        **** //input params:  num sensors, capsense clock divider, sensor resolution, loop wait, 
  20:main.c        **** 
  21:main.c        **** 
  22:main.c        **** #define DEVICE                  (0u)
  23:main.c        **** #define MIDI_MSG_SIZE           (4u)
  24:main.c        **** 
  25:main.c        **** /*MIDI Message Fields */
  26:main.c        **** #define MIDI_MSG_TYPE           (0u)
  27:main.c        **** #define MIDI_CC_NUMBER        (1u)
  28:main.c        **** #define MIDI_CC_VALUE      (2u)
  29:main.c        **** 
  30:main.c        **** 
ARM GAS  C:\Users\JEFFSN~1\AppData\Local\Temp\ccUrH2Ie.s 			page 2


  31:main.c        **** 
  32:main.c        **** /*Logical Size of Em_EEPROM*/
  33:main.c        **** #define LOGICAL_EEPROM_SIZE     15u
  34:main.c        **** #define LOGICAL_EEPROM_START    0u
  35:main.c        **** 
  36:main.c        **** /*location of reset counter in Em_EEPROM*/
  37:main.c        **** #define RESET_COUNT_LOCATION    13u
  38:main.c        **** #define RESET_COUNT_SIZE        2u
  39:main.c        **** /* EEPROM storage in work flash, this is defined in Em_EEPROM.c*/
  40:main.c        **** const uint8_t Em_EEPROM_em_EepromStorage[Em_EEPROM_PHYSICAL_SIZE]
  41:main.c        **** __ALIGNED(CY_FLASH_SIZEOF_ROW) = {0u};
  42:main.c        **** 
  43:main.c        **** 
  44:main.c        **** cy_en_em_eeprom_status_t eepromReturnValue;
  45:main.c        **** 
  46:main.c        **** 
  47:main.c        **** uint8_t EEPROMarray[15];
  48:main.c        **** 
  49:main.c        **** uint16_t capSensorsPrev[26];
  50:main.c        **** 
  51:main.c        **** void CapSense_DisplayState(void);
  52:main.c        **** void setResolution(uint8_t newResolution);
  53:main.c        **** void setIDAC(uint8_t newIDAC);
  54:main.c        **** void  setActiveSensors(void);
  55:main.c        **** void setClockDivider(uint8_t newClockDivider);
  56:main.c        **** void setScanSpeed(uint8 newSpeed);
  57:main.c        **** 
  58:main.c        **** uint8_t numActiveSensors = 2;
  59:main.c        **** uint8_t rawVsCooked = 0;
  60:main.c        **** uint8_t maxActiveSensors = 26;
  61:main.c        **** uint8_t clockDivider = 11;
  62:main.c        **** uint8_t maxClockDivider = 255;
  63:main.c        **** uint8_t minClockDivider = 1;
  64:main.c        **** uint8_t delayBetweenLoops = 3;
  65:main.c        **** uint8_t maxResolution = 16;
  66:main.c        **** uint8_t minResolution = 8;
  67:main.c        **** uint8_t maxIDAC = 255;
  68:main.c        **** uint8_t minIDAC = 1;
  69:main.c        **** uint8_t clockDividerLowByte = 0;
  70:main.c        **** uint8_t IDACLowByte = 0;
  71:main.c        **** uint8_t maxScanSpeed = 3;
  72:main.c        **** uint8_t minScanSpeed = 0;
  73:main.c        **** uint8_t sensorResolution = 10;
  74:main.c        **** 
  75:main.c        **** extern uint8 CapSense_widgetResolution[];
  76:main.c        **** extern uint8 CapSense_idacSettings[];
  77:main.c        **** extern uint8 CapSense_analogSwitchDivider;
  78:main.c        **** 
  79:main.c        **** 
  80:main.c        **** int main(void)
  81:main.c        **** {
  82:main.c        ****   
  83:main.c        ****     uint8 midiMsg[MIDI_MSG_SIZE];   
  84:main.c        ****             
  85:main.c        ****     /* Enable global interrupts */
  86:main.c        ****     CyGlobalIntEnable;
  87:main.c        ****     Em_EEPROM_Init((uint32_t)Em_EEPROM_em_EepromStorage);
ARM GAS  C:\Users\JEFFSN~1\AppData\Local\Temp\ccUrH2Ie.s 			page 3


  88:main.c        **** 
  89:main.c        ****     /* Start USBFS device 0 with VDDD operation */
  90:main.c        ****     USB_Start(DEVICE, USB_DWR_VDDD_OPERATION); 
  91:main.c        **** 
  92:main.c        ****     //maybe use the actual EEPROM in PSOC5 instead of emulated? 
  93:main.c        ****     eepromReturnValue = Em_EEPROM_Read(LOGICAL_EEPROM_START, EEPROMarray, LOGICAL_EEPROM_SIZE); 
  94:main.c        ****         
  95:main.c        ****     //set local variables and settings to the settings retrieved from the EEPROM storage
  96:main.c        ****     rawVsCooked = EEPROMarray[0];
  97:main.c        ****     numActiveSensors = EEPROMarray[1];
  98:main.c        ****     setActiveSensors();
  99:main.c        ****     sensorResolution = EEPROMarray[2];
 100:main.c        ****     setResolution(sensorResolution);
 101:main.c        ****     setClockDivider(EEPROMarray[3]);
 102:main.c        ****     setIDAC(EEPROMarray[4]);
 103:main.c        ****     setScanSpeed( EEPROMarray[5]);
 104:main.c        ****     
 105:main.c        ****     
 106:main.c        ****     CapSense_Start();
 107:main.c        ****     CapSense_InitializeAllBaselines();
 108:main.c        ****     
 109:main.c        ****     while(1u)
 110:main.c        ****     {
 111:main.c        ****         /* Check whether the scanning of all enabled widgets is completed. */
 112:main.c        ****         if(0u == CapSense_IsBusy())
 113:main.c        ****         {
 114:main.c        ****             /* Update all baselines */
 115:main.c        ****             CapSense_UpdateEnabledBaselines();
 116:main.c        **** 
 117:main.c        ****             /* Start scanning all enabled sensors */
 118:main.c        ****             CapSense_ScanEnabledWidgets();
 119:main.c        ****             
 120:main.c        ****             
 121:main.c        ****               /* Display CapSense state using LED */
 122:main.c        ****             CapSense_DisplayState();
 123:main.c        ****             
 124:main.c        ****             
 125:main.c        ****             /* Host can send double SET_INTERFACE request */
 126:main.c        ****             if(0u != USB_IsConfigurationChanged())
 127:main.c        ****             {
 128:main.c        ****                 /* Initialize IN endpoints when device configured */
 129:main.c        ****                 if(0u != USB_GetConfiguration())   
 130:main.c        ****                 {
 131:main.c        ****                     
 132:main.c        ****                 	/* Enable output endpoint */
 133:main.c        ****                     USB_MIDI_Init();
 134:main.c        ****                 }
 135:main.c        **** 
 136:main.c        ****             }        
 137:main.c        ****             
 138:main.c        ****             /* Service USB MIDI when device is configured */
 139:main.c        ****             if(0u != USB_GetConfiguration())    
 140:main.c        ****             {
 141:main.c        ****                 /* Call this API from UART RX ISR for Auto DMA mode */
 142:main.c        ****                 #if(!USB_EP_MANAGEMENT_DMA_AUTO) 
 143:main.c        ****                     USB_MIDI_IN_Service();
 144:main.c        ****                 #endif
ARM GAS  C:\Users\JEFFSN~1\AppData\Local\Temp\ccUrH2Ie.s 			page 4


 145:main.c        ****                 /* In Manual EP Memory Management mode OUT_EP_Service() 
 146:main.c        ****                 *  may have to be called from main foreground or from OUT EP ISR
 147:main.c        ****                 */
 148:main.c        ****                 #if(!USB_EP_MANAGEMENT_DMA_AUTO) 
 149:main.c        ****                     USB_MIDI_OUT_Service();
 150:main.c        ****                 #endif
 151:main.c        **** 
 152:main.c        ****                 
 153:main.c        ****                 for (int i = 0; i < numActiveSensors; i++)
 154:main.c        ****                 {
 155:main.c        ****             		uint16_t tempSensor = 0;
 156:main.c        ****                     
 157:main.c        ****                     if (rawVsCooked == 0)
 158:main.c        ****                     {
 159:main.c        ****                         tempSensor = CapSense_sensorRaw[i];
 160:main.c        ****                     }
 161:main.c        ****                     else
 162:main.c        ****                     {
 163:main.c        ****                         tempSensor = CapSense_sensorSignal[i];
 164:main.c        ****                     }
 165:main.c        ****                     //filter out repeat values to keep the communication on the USB bus to a minimu
 166:main.c        ****                     if (tempSensor != capSensorsPrev[i])
 167:main.c        ****                     {   
 168:main.c        ****                         midiMsg[MIDI_MSG_TYPE] = USB_MIDI_CONTROL_CHANGE;
 169:main.c        ****             			midiMsg[MIDI_CC_NUMBER] = (i * 3);
 170:main.c        ****                         midiMsg[MIDI_CC_VALUE] = (tempSensor & 127);
 171:main.c        ****                         USB_PutUsbMidiIn(USB_3BYTE_COMMON, midiMsg, USB_MIDI_CABLE_00);            
 172:main.c        ****                         midiMsg[MIDI_MSG_TYPE] = USB_MIDI_CONTROL_CHANGE;
 173:main.c        ****             			midiMsg[MIDI_CC_NUMBER] = (i * 3) + 1;
 174:main.c        ****                         midiMsg[MIDI_CC_VALUE] =(tempSensor >> 7) & 127;
 175:main.c        ****                         USB_PutUsbMidiIn(USB_3BYTE_COMMON, midiMsg, USB_MIDI_CABLE_00);
 176:main.c        ****                         midiMsg[MIDI_CC_NUMBER] = (i * 3) + 2;
 177:main.c        ****                         midiMsg[MIDI_CC_VALUE] =(tempSensor >> 14) & 127;
 178:main.c        ****                         USB_PutUsbMidiIn(USB_3BYTE_COMMON, midiMsg, USB_MIDI_CABLE_00);
 179:main.c        ****                     }
 180:main.c        ****                     //store values for future comparison
 181:main.c        ****                     capSensorsPrev[i] = tempSensor;
 182:main.c        ****         		}
 183:main.c        ****             }
 184:main.c        ****         }
 185:main.c        ****     }
 186:main.c        **** }
 187:main.c        **** 
 188:main.c        **** 
 189:main.c        **** void CapSense_DisplayState(void)
 190:main.c        **** {
  28              		.loc 1 190 0
  29              		.cfi_startproc
  30              		@ args = 0, pretend = 0, frame = 0
  31              		@ frame_needed = 0, uses_anonymous_args = 0
  32 0000 08B5     		push	{r3, lr}
  33              		.cfi_def_cfa_offset 8
  34              		.cfi_offset 3, -8
  35              		.cfi_offset 14, -4
 191:main.c        ****     /* Display BUTTON0 state */
 192:main.c        ****     if (CapSense_CheckIsWidgetActive(CapSense_SENSOR_BUTTON0__BTN))
  36              		.loc 1 192 0
ARM GAS  C:\Users\JEFFSN~1\AppData\Local\Temp\ccUrH2Ie.s 			page 5


  37 0002 0020     		movs	r0, #0
  38 0004 FFF7FEFF 		bl	CapSense_CheckIsWidgetActive
  39              	.LVL0:
  40 0008 18B1     		cbz	r0, .L2
 193:main.c        ****     {
 194:main.c        ****         LED1_Write(1u);
  41              		.loc 1 194 0
  42 000a 0120     		movs	r0, #1
  43 000c FFF7FEFF 		bl	LED1_Write
  44              	.LVL1:
  45 0010 08BD     		pop	{r3, pc}
  46              	.L2:
 195:main.c        ****     }
 196:main.c        ****     else
 197:main.c        ****     {
 198:main.c        ****         LED1_Write(0u);
  47              		.loc 1 198 0
  48 0012 0020     		movs	r0, #0
  49 0014 FFF7FEFF 		bl	LED1_Write
  50              	.LVL2:
  51 0018 08BD     		pop	{r3, pc}
  52              		.cfi_endproc
  53              	.LFE64:
  54              		.size	CapSense_DisplayState, .-CapSense_DisplayState
  55 001a 00BF     		.section	.text.setActiveSensors,"ax",%progbits
  56              		.align	2
  57              		.global	setActiveSensors
  58              		.thumb
  59              		.thumb_func
  60              		.type	setActiveSensors, %function
  61              	setActiveSensors:
  62              	.LFB66:
 199:main.c        ****     }
 200:main.c        **** 
 201:main.c        **** 
 202:main.c        **** }
 203:main.c        **** 
 204:main.c        **** 
 205:main.c        **** /*******************************************************************************
 206:main.c        **** * Function Name: USB_callbackLocalMidiEvent
 207:main.c        **** ********************************************************************************
 208:main.c        **** * Summary: Local processing of the USB MIDI out-events.
 209:main.c        **** *
 210:main.c        **** *******************************************************************************/
 211:main.c        **** void USB_callbackLocalMidiEvent(uint8 cable, uint8 *midiMsg) CYREENTRANT
 212:main.c        **** {
 213:main.c        ****     /* Support General System On/Off Message. */
 214:main.c        ****     {
 215:main.c        ****         if(midiMsg[USB_EVENT_BYTE0] == USB_MIDI_SYSEX_GEN_MESSAGE)
 216:main.c        ****         {
 217:main.c        ****             if(midiMsg[USB_EVENT_BYTE1] == USB_MIDI_SYSEX_SYSTEM_ON)
 218:main.c        ****             {
 219:main.c        ****                 //MIDI_PWR_Write(0u); /* Power ON */
 220:main.c        ****             }
 221:main.c        ****             else if(midiMsg[USB_EVENT_BYTE1] == USB_MIDI_SYSEX_SYSTEM_OFF)
 222:main.c        ****             {
 223:main.c        ****                 //MIDI_PWR_Write(1u); /* Power OFF */
ARM GAS  C:\Users\JEFFSN~1\AppData\Local\Temp\ccUrH2Ie.s 			page 6


 224:main.c        ****             }
 225:main.c        ****         }
 226:main.c        ****         
 227:main.c        ****         //raw vs cooked change
 228:main.c        ****         if ((midiMsg[USB_EVENT_BYTE0] == USB_MIDI_NOTE_ON) && (midiMsg[USB_EVENT_BYTE1] == 61))
 229:main.c        ****         {
 230:main.c        ****             rawVsCooked = (midiMsg[USB_EVENT_BYTE2] > 0);
 231:main.c        ****             EEPROMarray[0] = rawVsCooked;
 232:main.c        ****             eepromReturnValue = Em_EEPROM_Write(LOGICAL_EEPROM_START, EEPROMarray, LOGICAL_EEPROM_S
 233:main.c        ****         }
 234:main.c        ****         
 235:main.c        ****         
 236:main.c        ****         //numActiveSensors change
 237:main.c        ****         if ((midiMsg[USB_EVENT_BYTE0] == USB_MIDI_CONTROL_CHANGE) && (midiMsg[USB_EVENT_BYTE1] == 0
 238:main.c        ****         {
 239:main.c        ****             if (midiMsg[USB_EVENT_BYTE2] <= maxActiveSensors)
 240:main.c        ****             {
 241:main.c        ****                 numActiveSensors = midiMsg[USB_EVENT_BYTE2];
 242:main.c        ****                 
 243:main.c        ****                 EEPROMarray[1] = numActiveSensors;
 244:main.c        ****                 eepromReturnValue = Em_EEPROM_Write(LOGICAL_EEPROM_START, EEPROMarray, LOGICAL_EEPR
 245:main.c        ****                 
 246:main.c        ****                 setActiveSensors();
 247:main.c        ****             }
 248:main.c        ****         }
 249:main.c        ****         
 250:main.c        ****         //set resolution
 251:main.c        ****         if ((midiMsg[USB_EVENT_BYTE0] == USB_MIDI_CONTROL_CHANGE) && (midiMsg[USB_EVENT_BYTE1] == 1
 252:main.c        ****         {
 253:main.c        ****             if ((midiMsg[USB_EVENT_BYTE2] <= maxResolution) && (midiMsg[USB_EVENT_BYTE2] >= minReso
 254:main.c        ****             {
 255:main.c        ****                 sensorResolution = midiMsg[USB_EVENT_BYTE2];
 256:main.c        ****                 setResolution(sensorResolution);
 257:main.c        ****                 EEPROMarray[2] = sensorResolution;
 258:main.c        ****                 eepromReturnValue = Em_EEPROM_Write(LOGICAL_EEPROM_START, EEPROMarray, LOGICAL_EEPR
 259:main.c        ****             }
 260:main.c        ****         }
 261:main.c        ****        
 262:main.c        ****         //clock divider high = 2
 263:main.c        ****         //clock divider low = 3
 264:main.c        ****         //capsense clock divider change
 265:main.c        ****         
 266:main.c        ****         if ((midiMsg[USB_EVENT_BYTE0] == USB_MIDI_CONTROL_CHANGE) && (midiMsg[USB_EVENT_BYTE1] == 2
 267:main.c        ****         {
 268:main.c        ****             uint8_t tempClockDivider = (midiMsg[USB_EVENT_BYTE2] << 7) + clockDividerLowByte;
 269:main.c        **** 
 270:main.c        ****             if ((tempClockDivider <= maxClockDivider) && (tempClockDivider >= minClockDivider))
 271:main.c        ****             {
 272:main.c        ****                 clockDivider = tempClockDivider;
 273:main.c        ****                 EEPROMarray[3] = clockDivider;
 274:main.c        ****                 eepromReturnValue = Em_EEPROM_Write(LOGICAL_EEPROM_START, EEPROMarray, LOGICAL_EEPR
 275:main.c        ****                 setClockDivider(clockDivider);
 276:main.c        ****             }
 277:main.c        ****         }
 278:main.c        ****         if ((midiMsg[USB_EVENT_BYTE0] == USB_MIDI_CONTROL_CHANGE) && (midiMsg[USB_EVENT_BYTE1] == 3
 279:main.c        ****         {
 280:main.c        ****             if (midiMsg[USB_EVENT_BYTE2] < 128)
ARM GAS  C:\Users\JEFFSN~1\AppData\Local\Temp\ccUrH2Ie.s 			page 7


 281:main.c        ****             {
 282:main.c        ****                 clockDividerLowByte = midiMsg[USB_EVENT_BYTE2];
 283:main.c        ****             }
 284:main.c        ****         }
 285:main.c        ****         
 286:main.c        ****         
 287:main.c        ****         //IDAC high = 4
 288:main.c        ****         //IDAC low = 5
 289:main.c        ****         //set IDAC
 290:main.c        ****         if ((midiMsg[USB_EVENT_BYTE0] == USB_MIDI_CONTROL_CHANGE) && (midiMsg[USB_EVENT_BYTE1] == 4
 291:main.c        ****         {
 292:main.c        ****             uint8_t tempIDAC =  (midiMsg[USB_EVENT_BYTE2] << 7) + IDACLowByte;
 293:main.c        ****             
 294:main.c        ****             if ((tempIDAC <= maxIDAC) && (tempIDAC >= minIDAC))
 295:main.c        ****             {
 296:main.c        ****                 setIDAC(tempIDAC);
 297:main.c        ****                 EEPROMarray[4] = tempIDAC;
 298:main.c        ****                 eepromReturnValue = Em_EEPROM_Write(LOGICAL_EEPROM_START, EEPROMarray, LOGICAL_EEPR
 299:main.c        ****             }
 300:main.c        ****         }
 301:main.c        ****         if ((midiMsg[USB_EVENT_BYTE0] == USB_MIDI_CONTROL_CHANGE) && (midiMsg[USB_EVENT_BYTE1] == 5
 302:main.c        ****         {
 303:main.c        ****             if (midiMsg[USB_EVENT_BYTE2] < 128)
 304:main.c        ****             {
 305:main.c        ****                 IDACLowByte = midiMsg[USB_EVENT_BYTE2];
 306:main.c        ****             }
 307:main.c        ****         }
 308:main.c        ****         
 309:main.c        ****         
 310:main.c        ****         //set Scan Speed
 311:main.c        ****         if ((midiMsg[USB_EVENT_BYTE0] == USB_MIDI_CONTROL_CHANGE) && (midiMsg[USB_EVENT_BYTE1] == 6
 312:main.c        ****         {
 313:main.c        ****             uint8_t tempScanSpeed = midiMsg[USB_EVENT_BYTE2];
 314:main.c        ****             if ((tempScanSpeed >= minScanSpeed) && (tempScanSpeed <= maxScanSpeed))
 315:main.c        ****             {
 316:main.c        ****                 setScanSpeed(tempScanSpeed);
 317:main.c        ****                 EEPROMarray[5] = tempScanSpeed;
 318:main.c        ****                 eepromReturnValue = Em_EEPROM_Write(LOGICAL_EEPROM_START, EEPROMarray, LOGICAL_EEPR
 319:main.c        ****             }
 320:main.c        ****         }
 321:main.c        ****         
 322:main.c        ****         //initialize baselines
 323:main.c        ****         if ((midiMsg[USB_EVENT_BYTE0] == USB_MIDI_NOTE_ON) && (midiMsg[USB_EVENT_BYTE1] == 60))
 324:main.c        ****         {
 325:main.c        ****             CapSense_InitializeAllBaselines();
 326:main.c        ****         }
 327:main.c        ****         
 328:main.c        ****         //initialize baselines
 329:main.c        ****         CapSense_InitializeAllBaselines();
 330:main.c        ****         
 331:main.c        ****     }
 332:main.c        ****     cable = cable;
 333:main.c        **** }    
 334:main.c        **** 
 335:main.c        **** void setActiveSensors(void)
 336:main.c        **** {
  63              		.loc 1 336 0
ARM GAS  C:\Users\JEFFSN~1\AppData\Local\Temp\ccUrH2Ie.s 			page 8


  64              		.cfi_startproc
  65              		@ args = 0, pretend = 0, frame = 0
  66              		@ frame_needed = 0, uses_anonymous_args = 0
  67 0000 38B5     		push	{r3, r4, r5, lr}
  68              		.cfi_def_cfa_offset 16
  69              		.cfi_offset 3, -16
  70              		.cfi_offset 4, -12
  71              		.cfi_offset 5, -8
  72              		.cfi_offset 14, -4
  73              	.LVL3:
  74              	.LBB2:
 337:main.c        ****     // turn on the sensors before the numActiveSensors point
 338:main.c        ****     for (int i = 0; i < numActiveSensors; i++)
  75              		.loc 1 338 0
  76 0002 0024     		movs	r4, #0
  77 0004 03E0     		b	.L6
  78              	.LVL4:
  79              	.L7:
 339:main.c        ****     {
 340:main.c        ****         CapSense_EnableWidget(i);
  80              		.loc 1 340 0 discriminator 3
  81 0006 E0B2     		uxtb	r0, r4
  82 0008 FFF7FEFF 		bl	CapSense_EnableWidget
  83              	.LVL5:
 338:main.c        ****     {
  84              		.loc 1 338 0 discriminator 3
  85 000c 0134     		adds	r4, r4, #1
  86              	.LVL6:
  87              	.L6:
 338:main.c        ****     {
  88              		.loc 1 338 0 is_stmt 0 discriminator 1
  89 000e 094B     		ldr	r3, .L12
  90 0010 1B78     		ldrb	r3, [r3]	@ zero_extendqisi2
  91 0012 1D46     		mov	r5, r3
  92 0014 9C42     		cmp	r4, r3
  93 0016 F6DB     		blt	.L7
  94              	.LBE2:
 341:main.c        ****     }
 342:main.c        ****     if (numActiveSensors < maxActiveSensors)
  95              		.loc 1 342 0 is_stmt 1
  96 0018 064A     		ldr	r2, .L12
  97 001a 5278     		ldrb	r2, [r2, #1]	@ zero_extendqisi2
  98 001c 9342     		cmp	r3, r2
  99 001e 04D3     		bcc	.L8
 100              	.LBB3:
 101 0020 38BD     		pop	{r3, r4, r5, pc}
 102              	.LVL7:
 103              	.L10:
 343:main.c        ****     {
 344:main.c        ****        //turn off the sensors beyond the numActiveSensors point
 345:main.c        ****         for(int i = numActiveSensors; i < maxActiveSensors; i++)
 346:main.c        ****         {
 347:main.c        ****             CapSense_DisableWidget(i);
 104              		.loc 1 347 0 discriminator 3
 105 0022 E8B2     		uxtb	r0, r5
 106 0024 FFF7FEFF 		bl	CapSense_DisableWidget
 107              	.LVL8:
ARM GAS  C:\Users\JEFFSN~1\AppData\Local\Temp\ccUrH2Ie.s 			page 9


 345:main.c        ****         {
 108              		.loc 1 345 0 discriminator 3
 109 0028 0135     		adds	r5, r5, #1
 110              	.LVL9:
 111              	.L8:
 345:main.c        ****         {
 112              		.loc 1 345 0 is_stmt 0 discriminator 1
 113 002a 024B     		ldr	r3, .L12
 114 002c 5B78     		ldrb	r3, [r3, #1]	@ zero_extendqisi2
 115 002e 9D42     		cmp	r5, r3
 116 0030 F7DB     		blt	.L10
 117 0032 38BD     		pop	{r3, r4, r5, pc}
 118              	.LVL10:
 119              	.L13:
 120              		.align	2
 121              	.L12:
 122 0034 00000000 		.word	.LANCHOR0
 123              	.LBE3:
 124              		.cfi_endproc
 125              	.LFE66:
 126              		.size	setActiveSensors, .-setActiveSensors
 127              		.section	.text.setScanSpeed,"ax",%progbits
 128              		.align	2
 129              		.global	setScanSpeed
 130              		.thumb
 131              		.thumb_func
 132              		.type	setScanSpeed, %function
 133              	setScanSpeed:
 134              	.LFB67:
 348:main.c        ****         }
 349:main.c        ****     }
 350:main.c        **** }
 351:main.c        **** 
 352:main.c        **** void setScanSpeed(uint8 newSpeed)
 353:main.c        **** {           
 135              		.loc 1 353 0 is_stmt 1
 136              		.cfi_startproc
 137              		@ args = 0, pretend = 0, frame = 0
 138              		@ frame_needed = 0, uses_anonymous_args = 0
 139              	.LVL11:
 140 0000 08B5     		push	{r3, lr}
 141              		.cfi_def_cfa_offset 8
 142              		.cfi_offset 3, -8
 143              		.cfi_offset 14, -4
 354:main.c        ****     if ((newSpeed <= maxScanSpeed) && (newSpeed >= minScanSpeed))
 144              		.loc 1 354 0
 145 0002 0F4B     		ldr	r3, .L20
 146 0004 9B78     		ldrb	r3, [r3, #2]	@ zero_extendqisi2
 147 0006 8342     		cmp	r3, r0
 148 0008 19D3     		bcc	.L14
 149              		.loc 1 354 0 is_stmt 0 discriminator 1
 150 000a 0E4B     		ldr	r3, .L20+4
 151 000c 1B78     		ldrb	r3, [r3]	@ zero_extendqisi2
 152 000e 9842     		cmp	r0, r3
 153 0010 15D3     		bcc	.L14
 355:main.c        ****     {
 356:main.c        ****         if (newSpeed == 0)
ARM GAS  C:\Users\JEFFSN~1\AppData\Local\Temp\ccUrH2Ie.s 			page 10


 154              		.loc 1 356 0 is_stmt 1
 155 0012 18B9     		cbnz	r0, .L16
 357:main.c        ****         {
 358:main.c        ****             CapSense_SetScanSpeed(CapSense_SCAN_SPEED_SLOW);
 156              		.loc 1 358 0
 157 0014 0F20     		movs	r0, #15
 158              	.LVL12:
 159 0016 FFF7FEFF 		bl	CapSense_SetScanSpeed
 160              	.LVL13:
 161 001a 08BD     		pop	{r3, pc}
 162              	.LVL14:
 163              	.L16:
 359:main.c        ****         }
 360:main.c        ****         else if (newSpeed == 1)
 164              		.loc 1 360 0
 165 001c 0128     		cmp	r0, #1
 166 001e 03D1     		bne	.L17
 361:main.c        ****         {
 362:main.c        ****             CapSense_SetScanSpeed(CapSense_SCAN_SPEED_NORMAL );
 167              		.loc 1 362 0
 168 0020 0720     		movs	r0, #7
 169              	.LVL15:
 170 0022 FFF7FEFF 		bl	CapSense_SetScanSpeed
 171              	.LVL16:
 172 0026 08BD     		pop	{r3, pc}
 173              	.LVL17:
 174              	.L17:
 363:main.c        ****         }
 364:main.c        ****         else if (newSpeed == 2)
 175              		.loc 1 364 0
 176 0028 0228     		cmp	r0, #2
 177 002a 03D1     		bne	.L18
 365:main.c        ****         {
 366:main.c        ****             CapSense_SetScanSpeed(CapSense_SCAN_SPEED_FAST  );
 178              		.loc 1 366 0
 179 002c 0320     		movs	r0, #3
 180              	.LVL18:
 181 002e FFF7FEFF 		bl	CapSense_SetScanSpeed
 182              	.LVL19:
 183 0032 08BD     		pop	{r3, pc}
 184              	.LVL20:
 185              	.L18:
 367:main.c        ****         }
 368:main.c        ****         else if (newSpeed == 3)
 186              		.loc 1 368 0
 187 0034 0328     		cmp	r0, #3
 188 0036 02D1     		bne	.L14
 369:main.c        ****         {
 370:main.c        ****             CapSense_SetScanSpeed(CapSense_SCAN_SPEED_ULTRA_FAST );
 189              		.loc 1 370 0
 190 0038 0120     		movs	r0, #1
 191              	.LVL21:
 192 003a FFF7FEFF 		bl	CapSense_SetScanSpeed
 193              	.LVL22:
 194              	.L14:
 195 003e 08BD     		pop	{r3, pc}
 196              	.L21:
ARM GAS  C:\Users\JEFFSN~1\AppData\Local\Temp\ccUrH2Ie.s 			page 11


 197              		.align	2
 198              	.L20:
 199 0040 00000000 		.word	.LANCHOR0
 200 0044 00000000 		.word	.LANCHOR1
 201              		.cfi_endproc
 202              	.LFE67:
 203              		.size	setScanSpeed, .-setScanSpeed
 204              		.section	.text.setResolution,"ax",%progbits
 205              		.align	2
 206              		.global	setResolution
 207              		.thumb
 208              		.thumb_func
 209              		.type	setResolution, %function
 210              	setResolution:
 211              	.LFB68:
 371:main.c        ****         }
 372:main.c        ****     }
 373:main.c        **** }
 374:main.c        **** 
 375:main.c        **** void setResolution(uint8_t newResolution)
 376:main.c        **** {
 212              		.loc 1 376 0
 213              		.cfi_startproc
 214              		@ args = 0, pretend = 0, frame = 0
 215              		@ frame_needed = 0, uses_anonymous_args = 0
 216              		@ link register save eliminated.
 217              	.LVL23:
 377:main.c        ****     uint8_t tempRes = 0;
 378:main.c        ****     
 379:main.c        ****     if (newResolution == 8)
 218              		.loc 1 379 0
 219 0000 0828     		cmp	r0, #8
 220 0002 11D0     		beq	.L26
 380:main.c        ****     {
 381:main.c        ****        tempRes = CapSense_PWM_RESOLUTION_8_BITS;
 382:main.c        ****     }
 383:main.c        ****     else if (newResolution == 9)
 221              		.loc 1 383 0
 222 0004 0928     		cmp	r0, #9
 223 0006 11D0     		beq	.L27
 384:main.c        ****     {
 385:main.c        ****          tempRes = CapSense_PWM_RESOLUTION_9_BITS;
 386:main.c        ****     }
 387:main.c        ****     else if (newResolution == 10)
 224              		.loc 1 387 0
 225 0008 0A28     		cmp	r0, #10
 226 000a 11D0     		beq	.L28
 388:main.c        ****     {
 389:main.c        ****          tempRes = CapSense_PWM_RESOLUTION_10_BITS;
 390:main.c        ****     }
 391:main.c        ****     else if (newResolution == 11)
 227              		.loc 1 391 0
 228 000c 0B28     		cmp	r0, #11
 229 000e 11D0     		beq	.L29
 392:main.c        ****     {
 393:main.c        ****          tempRes = CapSense_PWM_RESOLUTION_11_BITS;
 394:main.c        ****     }
ARM GAS  C:\Users\JEFFSN~1\AppData\Local\Temp\ccUrH2Ie.s 			page 12


 395:main.c        ****     else if (newResolution == 12)
 230              		.loc 1 395 0
 231 0010 0C28     		cmp	r0, #12
 232 0012 11D0     		beq	.L30
 396:main.c        ****     {
 397:main.c        ****          tempRes = CapSense_PWM_RESOLUTION_12_BITS;
 398:main.c        ****     }
 399:main.c        ****     else if (newResolution == 13)
 233              		.loc 1 399 0
 234 0014 0D28     		cmp	r0, #13
 235 0016 11D0     		beq	.L31
 400:main.c        ****     {
 401:main.c        ****          tempRes = CapSense_PWM_RESOLUTION_13_BITS;
 402:main.c        ****     }
 403:main.c        ****     else if (newResolution == 14)
 236              		.loc 1 403 0
 237 0018 0E28     		cmp	r0, #14
 238 001a 11D0     		beq	.L32
 404:main.c        ****     {
 405:main.c        ****          tempRes = CapSense_PWM_RESOLUTION_14_BITS;
 406:main.c        ****     }
 407:main.c        ****     else if (newResolution == 15)
 239              		.loc 1 407 0
 240 001c 0F28     		cmp	r0, #15
 241 001e 11D0     		beq	.L33
 408:main.c        ****     {
 409:main.c        ****          tempRes = CapSense_PWM_RESOLUTION_15_BITS;
 410:main.c        ****     }
 411:main.c        ****     else if (newResolution == 16)
 242              		.loc 1 411 0
 243 0020 1028     		cmp	r0, #16
 244 0022 11D0     		beq	.L34
 377:main.c        ****     
 245              		.loc 1 377 0
 246 0024 0021     		movs	r1, #0
 247 0026 10E0     		b	.L23
 248              	.L26:
 381:main.c        ****     }
 249              		.loc 1 381 0
 250 0028 0021     		movs	r1, #0
 251 002a 0EE0     		b	.L23
 252              	.L27:
 385:main.c        ****     }
 253              		.loc 1 385 0
 254 002c 0121     		movs	r1, #1
 255 002e 0CE0     		b	.L23
 256              	.L28:
 389:main.c        ****     }
 257              		.loc 1 389 0
 258 0030 0321     		movs	r1, #3
 259 0032 0AE0     		b	.L23
 260              	.L29:
 393:main.c        ****     }
 261              		.loc 1 393 0
 262 0034 0721     		movs	r1, #7
 263 0036 08E0     		b	.L23
 264              	.L30:
ARM GAS  C:\Users\JEFFSN~1\AppData\Local\Temp\ccUrH2Ie.s 			page 13


 397:main.c        ****     }
 265              		.loc 1 397 0
 266 0038 0F21     		movs	r1, #15
 267 003a 06E0     		b	.L23
 268              	.L31:
 401:main.c        ****     }
 269              		.loc 1 401 0
 270 003c 1F21     		movs	r1, #31
 271 003e 04E0     		b	.L23
 272              	.L32:
 405:main.c        ****     }
 273              		.loc 1 405 0
 274 0040 3F21     		movs	r1, #63
 275 0042 02E0     		b	.L23
 276              	.L33:
 409:main.c        ****     }
 277              		.loc 1 409 0
 278 0044 7F21     		movs	r1, #127
 279 0046 00E0     		b	.L23
 280              	.L34:
 412:main.c        ****     {
 413:main.c        ****          tempRes = CapSense_PWM_RESOLUTION_16_BITS;
 281              		.loc 1 413 0
 282 0048 FF21     		movs	r1, #255
 283              	.L23:
 284              	.LVL24:
 285              	.LBB4:
 414:main.c        ****     }
 415:main.c        ****     
 416:main.c        ****     for (int i = 0; i < maxActiveSensors; i++)
 286              		.loc 1 416 0
 287 004a 0023     		movs	r3, #0
 288 004c 02E0     		b	.L24
 289              	.LVL25:
 290              	.L25:
 417:main.c        ****     {
 418:main.c        ****         CapSense_widgetResolution[i] = tempRes;
 291              		.loc 1 418 0 discriminator 3
 292 004e 044A     		ldr	r2, .L35
 293 0050 D154     		strb	r1, [r2, r3]
 416:main.c        ****     {
 294              		.loc 1 416 0 discriminator 3
 295 0052 0133     		adds	r3, r3, #1
 296              	.LVL26:
 297              	.L24:
 416:main.c        ****     {
 298              		.loc 1 416 0 is_stmt 0 discriminator 1
 299 0054 034A     		ldr	r2, .L35+4
 300 0056 5278     		ldrb	r2, [r2, #1]	@ zero_extendqisi2
 301 0058 9342     		cmp	r3, r2
 302 005a F8DB     		blt	.L25
 303              	.LBE4:
 419:main.c        ****     }
 420:main.c        **** }
 304              		.loc 1 420 0 is_stmt 1
 305 005c 7047     		bx	lr
 306              	.L36:
ARM GAS  C:\Users\JEFFSN~1\AppData\Local\Temp\ccUrH2Ie.s 			page 14


 307 005e 00BF     		.align	2
 308              	.L35:
 309 0060 00000000 		.word	CapSense_widgetResolution
 310 0064 00000000 		.word	.LANCHOR0
 311              		.cfi_endproc
 312              	.LFE68:
 313              		.size	setResolution, .-setResolution
 314              		.section	.text.setClockDivider,"ax",%progbits
 315              		.align	2
 316              		.global	setClockDivider
 317              		.thumb
 318              		.thumb_func
 319              		.type	setClockDivider, %function
 320              	setClockDivider:
 321              	.LFB69:
 421:main.c        **** 
 422:main.c        **** void setClockDivider(uint8_t newClockDivider)
 423:main.c        **** {
 322              		.loc 1 423 0
 323              		.cfi_startproc
 324              		@ args = 0, pretend = 0, frame = 0
 325              		@ frame_needed = 0, uses_anonymous_args = 0
 326              		@ link register save eliminated.
 327              	.LVL27:
 424:main.c        ****     CapSense_analogSwitchDivider = newClockDivider;
 328              		.loc 1 424 0
 329 0000 014B     		ldr	r3, .L38
 330 0002 1870     		strb	r0, [r3]
 331 0004 7047     		bx	lr
 332              	.L39:
 333 0006 00BF     		.align	2
 334              	.L38:
 335 0008 00000000 		.word	CapSense_analogSwitchDivider
 336              		.cfi_endproc
 337              	.LFE69:
 338              		.size	setClockDivider, .-setClockDivider
 339              		.section	.text.setIDAC,"ax",%progbits
 340              		.align	2
 341              		.global	setIDAC
 342              		.thumb
 343              		.thumb_func
 344              		.type	setIDAC, %function
 345              	setIDAC:
 346              	.LFB70:
 425:main.c        **** }
 426:main.c        **** 
 427:main.c        **** void setIDAC(uint8_t newIDAC)
 428:main.c        **** {
 347              		.loc 1 428 0
 348              		.cfi_startproc
 349              		@ args = 0, pretend = 0, frame = 0
 350              		@ frame_needed = 0, uses_anonymous_args = 0
 351              		@ link register save eliminated.
 352              	.LVL28:
 353              	.LBB5:
 429:main.c        ****     for (int i = 0; i < maxActiveSensors; i++)
 354              		.loc 1 429 0
ARM GAS  C:\Users\JEFFSN~1\AppData\Local\Temp\ccUrH2Ie.s 			page 15


 355 0000 0023     		movs	r3, #0
 356 0002 02E0     		b	.L41
 357              	.LVL29:
 358              	.L42:
 430:main.c        ****     {
 431:main.c        ****         CapSense_idacSettings[i] = newIDAC;
 359              		.loc 1 431 0 discriminator 3
 360 0004 034A     		ldr	r2, .L43
 361 0006 D054     		strb	r0, [r2, r3]
 429:main.c        ****     for (int i = 0; i < maxActiveSensors; i++)
 362              		.loc 1 429 0 discriminator 3
 363 0008 0133     		adds	r3, r3, #1
 364              	.LVL30:
 365              	.L41:
 429:main.c        ****     for (int i = 0; i < maxActiveSensors; i++)
 366              		.loc 1 429 0 is_stmt 0 discriminator 1
 367 000a 034A     		ldr	r2, .L43+4
 368 000c 5278     		ldrb	r2, [r2, #1]	@ zero_extendqisi2
 369 000e 9342     		cmp	r3, r2
 370 0010 F8DB     		blt	.L42
 371              	.LBE5:
 432:main.c        ****     }
 433:main.c        **** }
 372              		.loc 1 433 0 is_stmt 1
 373 0012 7047     		bx	lr
 374              	.L44:
 375              		.align	2
 376              	.L43:
 377 0014 00000000 		.word	CapSense_idacSettings
 378 0018 00000000 		.word	.LANCHOR0
 379              		.cfi_endproc
 380              	.LFE70:
 381              		.size	setIDAC, .-setIDAC
 382              		.section	.text.main,"ax",%progbits
 383              		.align	2
 384              		.global	main
 385              		.thumb
 386              		.thumb_func
 387              		.type	main, %function
 388              	main:
 389              	.LFB63:
  81:main.c        ****   
 390              		.loc 1 81 0
 391              		.cfi_startproc
 392              		@ args = 0, pretend = 0, frame = 8
 393              		@ frame_needed = 0, uses_anonymous_args = 0
 394 0000 F0B5     		push	{r4, r5, r6, r7, lr}
 395              		.cfi_def_cfa_offset 20
 396              		.cfi_offset 4, -20
 397              		.cfi_offset 5, -16
 398              		.cfi_offset 6, -12
 399              		.cfi_offset 7, -8
 400              		.cfi_offset 14, -4
 401 0002 83B0     		sub	sp, sp, #12
 402              		.cfi_def_cfa_offset 32
  86:main.c        ****     Em_EEPROM_Init((uint32_t)Em_EEPROM_em_EepromStorage);
 403              		.loc 1 86 0
ARM GAS  C:\Users\JEFFSN~1\AppData\Local\Temp\ccUrH2Ie.s 			page 16


 404              		.syntax unified
 405              	@ 86 "main.c" 1
 406 0004 62B6     		CPSIE   i
 407              	@ 0 "" 2
  87:main.c        **** 
 408              		.loc 1 87 0
 409              		.thumb
 410              		.syntax unified
 411 0006 4348     		ldr	r0, .L56
 412 0008 FFF7FEFF 		bl	Em_EEPROM_Init
 413              	.LVL31:
  90:main.c        **** 
 414              		.loc 1 90 0
 415 000c 0221     		movs	r1, #2
 416 000e 0020     		movs	r0, #0
 417 0010 FFF7FEFF 		bl	USB_Start
 418              	.LVL32:
  93:main.c        ****         
 419              		.loc 1 93 0
 420 0014 404C     		ldr	r4, .L56+4
 421 0016 414B     		ldr	r3, .L56+8
 422 0018 0F22     		movs	r2, #15
 423 001a 2146     		mov	r1, r4
 424 001c 0020     		movs	r0, #0
 425 001e FFF7FEFF 		bl	Cy_Em_EEPROM_Read
 426              	.LVL33:
 427 0022 3F4B     		ldr	r3, .L56+12
 428 0024 1870     		strb	r0, [r3]
  96:main.c        ****     numActiveSensors = EEPROMarray[1];
 429              		.loc 1 96 0
 430 0026 2278     		ldrb	r2, [r4]	@ zero_extendqisi2
 431 0028 3E4B     		ldr	r3, .L56+16
 432 002a 5A70     		strb	r2, [r3, #1]
  97:main.c        ****     setActiveSensors();
 433              		.loc 1 97 0
 434 002c 6378     		ldrb	r3, [r4, #1]	@ zero_extendqisi2
 435 002e 3E4D     		ldr	r5, .L56+20
 436 0030 2B70     		strb	r3, [r5]
  98:main.c        ****     sensorResolution = EEPROMarray[2];
 437              		.loc 1 98 0
 438 0032 FFF7FEFF 		bl	setActiveSensors
 439              	.LVL34:
  99:main.c        ****     setResolution(sensorResolution);
 440              		.loc 1 99 0
 441 0036 A078     		ldrb	r0, [r4, #2]	@ zero_extendqisi2
 442 0038 E870     		strb	r0, [r5, #3]
 100:main.c        ****     setClockDivider(EEPROMarray[3]);
 443              		.loc 1 100 0
 444 003a FFF7FEFF 		bl	setResolution
 445              	.LVL35:
 101:main.c        ****     setIDAC(EEPROMarray[4]);
 446              		.loc 1 101 0
 447 003e E078     		ldrb	r0, [r4, #3]	@ zero_extendqisi2
 448 0040 FFF7FEFF 		bl	setClockDivider
 449              	.LVL36:
 102:main.c        ****     setScanSpeed( EEPROMarray[5]);
 450              		.loc 1 102 0
ARM GAS  C:\Users\JEFFSN~1\AppData\Local\Temp\ccUrH2Ie.s 			page 17


 451 0044 2079     		ldrb	r0, [r4, #4]	@ zero_extendqisi2
 452 0046 FFF7FEFF 		bl	setIDAC
 453              	.LVL37:
 103:main.c        ****     
 454              		.loc 1 103 0
 455 004a 6079     		ldrb	r0, [r4, #5]	@ zero_extendqisi2
 456 004c FFF7FEFF 		bl	setScanSpeed
 457              	.LVL38:
 106:main.c        ****     CapSense_InitializeAllBaselines();
 458              		.loc 1 106 0
 459 0050 FFF7FEFF 		bl	CapSense_Start
 460              	.LVL39:
 107:main.c        ****     
 461              		.loc 1 107 0
 462 0054 FFF7FEFF 		bl	CapSense_InitializeAllBaselines
 463              	.LVL40:
 464              	.L46:
 112:main.c        ****         {
 465              		.loc 1 112 0
 466 0058 FFF7FEFF 		bl	CapSense_IsBusy
 467              	.LVL41:
 468 005c 0028     		cmp	r0, #0
 469 005e FBD1     		bne	.L46
 115:main.c        **** 
 470              		.loc 1 115 0
 471 0060 FFF7FEFF 		bl	CapSense_UpdateEnabledBaselines
 472              	.LVL42:
 118:main.c        ****             
 473              		.loc 1 118 0
 474 0064 FFF7FEFF 		bl	CapSense_ScanEnabledWidgets
 475              	.LVL43:
 122:main.c        ****             
 476              		.loc 1 122 0
 477 0068 FFF7FEFF 		bl	CapSense_DisplayState
 478              	.LVL44:
 126:main.c        ****             {
 479              		.loc 1 126 0
 480 006c FFF7FEFF 		bl	USB_IsConfigurationChanged
 481              	.LVL45:
 482 0070 20B1     		cbz	r0, .L47
 129:main.c        ****                 {
 483              		.loc 1 129 0
 484 0072 FFF7FEFF 		bl	USB_GetConfiguration
 485              	.LVL46:
 486 0076 08B1     		cbz	r0, .L47
 133:main.c        ****                 }
 487              		.loc 1 133 0
 488 0078 FFF7FEFF 		bl	USB_MIDI_Init
 489              	.LVL47:
 490              	.L47:
 139:main.c        ****             {
 491              		.loc 1 139 0
 492 007c FFF7FEFF 		bl	USB_GetConfiguration
 493              	.LVL48:
 494 0080 0028     		cmp	r0, #0
 495 0082 E9D0     		beq	.L46
 143:main.c        ****                 #endif
ARM GAS  C:\Users\JEFFSN~1\AppData\Local\Temp\ccUrH2Ie.s 			page 18


 496              		.loc 1 143 0
 497 0084 FFF7FEFF 		bl	USB_MIDI_IN_Service
 498              	.LVL49:
 149:main.c        ****                 #endif
 499              		.loc 1 149 0
 500 0088 FFF7FEFF 		bl	USB_MIDI_OUT_Service
 501              	.LVL50:
 502              	.LBB6:
 153:main.c        ****                 {
 503              		.loc 1 153 0
 504 008c 0024     		movs	r4, #0
 505 008e 3CE0     		b	.L49
 506              	.LVL51:
 507              	.L53:
 508              	.LBB7:
 157:main.c        ****                     {
 509              		.loc 1 157 0
 510 0090 244B     		ldr	r3, .L56+16
 511 0092 5B78     		ldrb	r3, [r3, #1]	@ zero_extendqisi2
 512 0094 1BB9     		cbnz	r3, .L50
 159:main.c        ****                     }
 513              		.loc 1 159 0
 514 0096 254B     		ldr	r3, .L56+24
 515 0098 33F81450 		ldrh	r5, [r3, r4, lsl #1]
 516              	.LVL52:
 517 009c 02E0     		b	.L51
 518              	.LVL53:
 519              	.L50:
 163:main.c        ****                     }
 520              		.loc 1 163 0
 521 009e 244B     		ldr	r3, .L56+28
 522 00a0 33F81450 		ldrh	r5, [r3, r4, lsl #1]
 523              	.LVL54:
 524              	.L51:
 166:main.c        ****                     {   
 525              		.loc 1 166 0
 526 00a4 234B     		ldr	r3, .L56+32
 527 00a6 33F81430 		ldrh	r3, [r3, r4, lsl #1]
 528 00aa 9D42     		cmp	r5, r3
 529 00ac 29D0     		beq	.L52
 168:main.c        ****             			midiMsg[MIDI_CC_NUMBER] = (i * 3);
 530              		.loc 1 168 0
 531 00ae B027     		movs	r7, #176
 532 00b0 8DF80470 		strb	r7, [sp, #4]
 169:main.c        ****                         midiMsg[MIDI_CC_VALUE] = (tempSensor & 127);
 533              		.loc 1 169 0
 534 00b4 04EB4406 		add	r6, r4, r4, lsl #1
 535 00b8 F6B2     		uxtb	r6, r6
 536 00ba 8DF80560 		strb	r6, [sp, #5]
 170:main.c        ****                         USB_PutUsbMidiIn(USB_3BYTE_COMMON, midiMsg, USB_MIDI_CABLE_00);            
 537              		.loc 1 170 0
 538 00be 05F07F03 		and	r3, r5, #127
 539 00c2 8DF80630 		strb	r3, [sp, #6]
 171:main.c        ****                         midiMsg[MIDI_MSG_TYPE] = USB_MIDI_CONTROL_CHANGE;
 540              		.loc 1 171 0
 541 00c6 0022     		movs	r2, #0
 542 00c8 01A9     		add	r1, sp, #4
ARM GAS  C:\Users\JEFFSN~1\AppData\Local\Temp\ccUrH2Ie.s 			page 19


 543 00ca 0320     		movs	r0, #3
 544 00cc FFF7FEFF 		bl	USB_PutUsbMidiIn
 545              	.LVL55:
 172:main.c        ****             			midiMsg[MIDI_CC_NUMBER] = (i * 3) + 1;
 546              		.loc 1 172 0
 547 00d0 8DF80470 		strb	r7, [sp, #4]
 173:main.c        ****                         midiMsg[MIDI_CC_VALUE] =(tempSensor >> 7) & 127;
 548              		.loc 1 173 0
 549 00d4 731C     		adds	r3, r6, #1
 550 00d6 8DF80530 		strb	r3, [sp, #5]
 174:main.c        ****                         USB_PutUsbMidiIn(USB_3BYTE_COMMON, midiMsg, USB_MIDI_CABLE_00);
 551              		.loc 1 174 0
 552 00da C5F3C613 		ubfx	r3, r5, #7, #7
 553 00de 8DF80630 		strb	r3, [sp, #6]
 175:main.c        ****                         midiMsg[MIDI_CC_NUMBER] = (i * 3) + 2;
 554              		.loc 1 175 0
 555 00e2 0022     		movs	r2, #0
 556 00e4 01A9     		add	r1, sp, #4
 557 00e6 0320     		movs	r0, #3
 558 00e8 FFF7FEFF 		bl	USB_PutUsbMidiIn
 559              	.LVL56:
 176:main.c        ****                         midiMsg[MIDI_CC_VALUE] =(tempSensor >> 14) & 127;
 560              		.loc 1 176 0
 561 00ec 0236     		adds	r6, r6, #2
 562 00ee 8DF80560 		strb	r6, [sp, #5]
 177:main.c        ****                         USB_PutUsbMidiIn(USB_3BYTE_COMMON, midiMsg, USB_MIDI_CABLE_00);
 563              		.loc 1 177 0
 564 00f2 AB0B     		lsrs	r3, r5, #14
 565 00f4 8DF80630 		strb	r3, [sp, #6]
 178:main.c        ****                     }
 566              		.loc 1 178 0
 567 00f8 0022     		movs	r2, #0
 568 00fa 01A9     		add	r1, sp, #4
 569 00fc 0320     		movs	r0, #3
 570 00fe FFF7FEFF 		bl	USB_PutUsbMidiIn
 571              	.LVL57:
 572              	.L52:
 181:main.c        ****         		}
 573              		.loc 1 181 0 discriminator 2
 574 0102 0C4B     		ldr	r3, .L56+32
 575 0104 23F81450 		strh	r5, [r3, r4, lsl #1]	@ movhi
 576              	.LBE7:
 153:main.c        ****                 {
 577              		.loc 1 153 0 discriminator 2
 578 0108 0134     		adds	r4, r4, #1
 579              	.LVL58:
 580              	.L49:
 153:main.c        ****                 {
 581              		.loc 1 153 0 is_stmt 0 discriminator 1
 582 010a 074B     		ldr	r3, .L56+20
 583 010c 1B78     		ldrb	r3, [r3]	@ zero_extendqisi2
 584 010e 9C42     		cmp	r4, r3
 585 0110 BEDB     		blt	.L53
 586 0112 A1E7     		b	.L46
 587              	.L57:
 588              		.align	2
 589              	.L56:
ARM GAS  C:\Users\JEFFSN~1\AppData\Local\Temp\ccUrH2Ie.s 			page 20


 590 0114 00000000 		.word	.LANCHOR2
 591 0118 00000000 		.word	EEPROMarray
 592 011c 00000000 		.word	Em_EEPROM_context
 593 0120 00000000 		.word	eepromReturnValue
 594 0124 00000000 		.word	.LANCHOR1
 595 0128 00000000 		.word	.LANCHOR0
 596 012c 00000000 		.word	CapSense_sensorRaw
 597 0130 00000000 		.word	CapSense_sensorSignal
 598 0134 00000000 		.word	capSensorsPrev
 599              	.LBE6:
 600              		.cfi_endproc
 601              	.LFE63:
 602              		.size	main, .-main
 603              		.section	.text.USB_callbackLocalMidiEvent,"ax",%progbits
 604              		.align	2
 605              		.global	USB_callbackLocalMidiEvent
 606              		.thumb
 607              		.thumb_func
 608              		.type	USB_callbackLocalMidiEvent, %function
 609              	USB_callbackLocalMidiEvent:
 610              	.LFB65:
 212:main.c        ****     /* Support General System On/Off Message. */
 611              		.loc 1 212 0 is_stmt 1
 612              		.cfi_startproc
 613              		@ args = 0, pretend = 0, frame = 0
 614              		@ frame_needed = 0, uses_anonymous_args = 0
 615              	.LVL59:
 616 0000 38B5     		push	{r3, r4, r5, lr}
 617              		.cfi_def_cfa_offset 16
 618              		.cfi_offset 3, -16
 619              		.cfi_offset 4, -12
 620              		.cfi_offset 5, -8
 621              		.cfi_offset 14, -4
 622 0002 0C46     		mov	r4, r1
 215:main.c        ****         {
 623              		.loc 1 215 0
 624 0004 0B78     		ldrb	r3, [r1]	@ zero_extendqisi2
 228:main.c        ****         {
 625              		.loc 1 228 0
 626 0006 902B     		cmp	r3, #144
 627 0008 11D1     		bne	.L59
 228:main.c        ****         {
 628              		.loc 1 228 0 is_stmt 0 discriminator 1
 629 000a 4B78     		ldrb	r3, [r1, #1]	@ zero_extendqisi2
 630 000c 3D2B     		cmp	r3, #61
 631 000e 0ED1     		bne	.L59
 230:main.c        ****             EEPROMarray[0] = rawVsCooked;
 632              		.loc 1 230 0 is_stmt 1
 633 0010 8B78     		ldrb	r3, [r1, #2]	@ zero_extendqisi2
 634 0012 0033     		adds	r3, r3, #0
 635 0014 18BF     		it	ne
 636 0016 0123     		movne	r3, #1
 637 0018 5F4A     		ldr	r2, .L69
 638 001a 5370     		strb	r3, [r2, #1]
 231:main.c        ****             eepromReturnValue = Em_EEPROM_Write(LOGICAL_EEPROM_START, EEPROMarray, LOGICAL_EEPROM_S
 639              		.loc 1 231 0
 640 001c 5F49     		ldr	r1, .L69+4
ARM GAS  C:\Users\JEFFSN~1\AppData\Local\Temp\ccUrH2Ie.s 			page 21


 641              	.LVL60:
 642 001e 0B70     		strb	r3, [r1]
 232:main.c        ****         }
 643              		.loc 1 232 0
 644 0020 5F4B     		ldr	r3, .L69+8
 645 0022 0F22     		movs	r2, #15
 646 0024 0020     		movs	r0, #0
 647              	.LVL61:
 648 0026 FFF7FEFF 		bl	Cy_Em_EEPROM_Write
 649              	.LVL62:
 650 002a 5E4B     		ldr	r3, .L69+12
 651 002c 1870     		strb	r0, [r3]
 652              	.L59:
 237:main.c        ****         {
 653              		.loc 1 237 0
 654 002e 2378     		ldrb	r3, [r4]	@ zero_extendqisi2
 655 0030 B02B     		cmp	r3, #176
 656 0032 13D1     		bne	.L60
 237:main.c        ****         {
 657              		.loc 1 237 0 is_stmt 0 discriminator 1
 658 0034 6378     		ldrb	r3, [r4, #1]	@ zero_extendqisi2
 659 0036 8BB9     		cbnz	r3, .L60
 239:main.c        ****             {
 660              		.loc 1 239 0 is_stmt 1
 661 0038 A378     		ldrb	r3, [r4, #2]	@ zero_extendqisi2
 662 003a 5B4A     		ldr	r2, .L69+16
 663 003c 5278     		ldrb	r2, [r2, #1]	@ zero_extendqisi2
 664 003e 9342     		cmp	r3, r2
 665 0040 0CD8     		bhi	.L60
 241:main.c        ****                 
 666              		.loc 1 241 0
 667 0042 594A     		ldr	r2, .L69+16
 668 0044 1370     		strb	r3, [r2]
 243:main.c        ****                 eepromReturnValue = Em_EEPROM_Write(LOGICAL_EEPROM_START, EEPROMarray, LOGICAL_EEPR
 669              		.loc 1 243 0
 670 0046 5549     		ldr	r1, .L69+4
 671 0048 4B70     		strb	r3, [r1, #1]
 244:main.c        ****                 
 672              		.loc 1 244 0
 673 004a 554B     		ldr	r3, .L69+8
 674 004c 0F22     		movs	r2, #15
 675 004e 0020     		movs	r0, #0
 676 0050 FFF7FEFF 		bl	Cy_Em_EEPROM_Write
 677              	.LVL63:
 678 0054 534B     		ldr	r3, .L69+12
 679 0056 1870     		strb	r0, [r3]
 246:main.c        ****             }
 680              		.loc 1 246 0
 681 0058 FFF7FEFF 		bl	setActiveSensors
 682              	.LVL64:
 683              	.L60:
 251:main.c        ****         {
 684              		.loc 1 251 0
 685 005c 2378     		ldrb	r3, [r4]	@ zero_extendqisi2
 686 005e B02B     		cmp	r3, #176
 687 0060 19D1     		bne	.L61
 251:main.c        ****         {
ARM GAS  C:\Users\JEFFSN~1\AppData\Local\Temp\ccUrH2Ie.s 			page 22


 688              		.loc 1 251 0 is_stmt 0 discriminator 1
 689 0062 6378     		ldrb	r3, [r4, #1]	@ zero_extendqisi2
 690 0064 012B     		cmp	r3, #1
 691 0066 16D1     		bne	.L61
 253:main.c        ****             {
 692              		.loc 1 253 0 is_stmt 1
 693 0068 A078     		ldrb	r0, [r4, #2]	@ zero_extendqisi2
 694 006a 4F4B     		ldr	r3, .L69+16
 695 006c 1B79     		ldrb	r3, [r3, #4]	@ zero_extendqisi2
 696 006e 9842     		cmp	r0, r3
 697 0070 11D8     		bhi	.L61
 253:main.c        ****             {
 698              		.loc 1 253 0 is_stmt 0 discriminator 1
 699 0072 4D4B     		ldr	r3, .L69+16
 700 0074 5B79     		ldrb	r3, [r3, #5]	@ zero_extendqisi2
 701 0076 9842     		cmp	r0, r3
 702 0078 0DD3     		bcc	.L61
 255:main.c        ****                 setResolution(sensorResolution);
 703              		.loc 1 255 0 is_stmt 1
 704 007a 4B4D     		ldr	r5, .L69+16
 705 007c E870     		strb	r0, [r5, #3]
 256:main.c        ****                 EEPROMarray[2] = sensorResolution;
 706              		.loc 1 256 0
 707 007e FFF7FEFF 		bl	setResolution
 708              	.LVL65:
 257:main.c        ****                 eepromReturnValue = Em_EEPROM_Write(LOGICAL_EEPROM_START, EEPROMarray, LOGICAL_EEPR
 709              		.loc 1 257 0
 710 0082 4649     		ldr	r1, .L69+4
 711 0084 EB78     		ldrb	r3, [r5, #3]	@ zero_extendqisi2
 712 0086 8B70     		strb	r3, [r1, #2]
 258:main.c        ****             }
 713              		.loc 1 258 0
 714 0088 454B     		ldr	r3, .L69+8
 715 008a 0F22     		movs	r2, #15
 716 008c 0020     		movs	r0, #0
 717 008e FFF7FEFF 		bl	Cy_Em_EEPROM_Write
 718              	.LVL66:
 719 0092 444B     		ldr	r3, .L69+12
 720 0094 1870     		strb	r0, [r3]
 721              	.L61:
 266:main.c        ****         {
 722              		.loc 1 266 0
 723 0096 2378     		ldrb	r3, [r4]	@ zero_extendqisi2
 724 0098 B02B     		cmp	r3, #176
 725 009a 1ED1     		bne	.L62
 266:main.c        ****         {
 726              		.loc 1 266 0 is_stmt 0 discriminator 1
 727 009c 6378     		ldrb	r3, [r4, #1]	@ zero_extendqisi2
 728 009e 022B     		cmp	r3, #2
 729 00a0 1BD1     		bne	.L62
 730              	.LBB8:
 268:main.c        **** 
 731              		.loc 1 268 0 is_stmt 1
 732 00a2 A278     		ldrb	r2, [r4, #2]	@ zero_extendqisi2
 733 00a4 3C4B     		ldr	r3, .L69
 734 00a6 9B78     		ldrb	r3, [r3, #2]	@ zero_extendqisi2
 735 00a8 03EBC213 		add	r3, r3, r2, lsl #7
ARM GAS  C:\Users\JEFFSN~1\AppData\Local\Temp\ccUrH2Ie.s 			page 23


 736 00ac DBB2     		uxtb	r3, r3
 737              	.LVL67:
 270:main.c        ****             {
 738              		.loc 1 270 0
 739 00ae 3E4A     		ldr	r2, .L69+16
 740 00b0 9279     		ldrb	r2, [r2, #6]	@ zero_extendqisi2
 741 00b2 9342     		cmp	r3, r2
 742 00b4 11D8     		bhi	.L62
 270:main.c        ****             {
 743              		.loc 1 270 0 is_stmt 0 discriminator 1
 744 00b6 3C4A     		ldr	r2, .L69+16
 745 00b8 D279     		ldrb	r2, [r2, #7]	@ zero_extendqisi2
 746 00ba 9342     		cmp	r3, r2
 747 00bc 0DD3     		bcc	.L62
 272:main.c        ****                 EEPROMarray[3] = clockDivider;
 748              		.loc 1 272 0 is_stmt 1
 749 00be 3A4D     		ldr	r5, .L69+16
 750 00c0 2B72     		strb	r3, [r5, #8]
 273:main.c        ****                 eepromReturnValue = Em_EEPROM_Write(LOGICAL_EEPROM_START, EEPROMarray, LOGICAL_EEPR
 751              		.loc 1 273 0
 752 00c2 3649     		ldr	r1, .L69+4
 753 00c4 CB70     		strb	r3, [r1, #3]
 274:main.c        ****                 setClockDivider(clockDivider);
 754              		.loc 1 274 0
 755 00c6 364B     		ldr	r3, .L69+8
 756              	.LVL68:
 757 00c8 0F22     		movs	r2, #15
 758 00ca 0020     		movs	r0, #0
 759 00cc FFF7FEFF 		bl	Cy_Em_EEPROM_Write
 760              	.LVL69:
 761 00d0 344B     		ldr	r3, .L69+12
 762 00d2 1870     		strb	r0, [r3]
 275:main.c        ****             }
 763              		.loc 1 275 0
 764 00d4 287A     		ldrb	r0, [r5, #8]	@ zero_extendqisi2
 765 00d6 FFF7FEFF 		bl	setClockDivider
 766              	.LVL70:
 767              	.L62:
 768              	.LBE8:
 278:main.c        ****         {
 769              		.loc 1 278 0
 770 00da 2378     		ldrb	r3, [r4]	@ zero_extendqisi2
 771 00dc B02B     		cmp	r3, #176
 772 00de 08D1     		bne	.L63
 278:main.c        ****         {
 773              		.loc 1 278 0 is_stmt 0 discriminator 1
 774 00e0 6378     		ldrb	r3, [r4, #1]	@ zero_extendqisi2
 775 00e2 032B     		cmp	r3, #3
 776 00e4 05D1     		bne	.L63
 280:main.c        ****             {
 777              		.loc 1 280 0 is_stmt 1
 778 00e6 A378     		ldrb	r3, [r4, #2]	@ zero_extendqisi2
 779 00e8 13F0800F 		tst	r3, #128
 780 00ec 01D1     		bne	.L63
 282:main.c        ****             }
 781              		.loc 1 282 0
 782 00ee 2A4A     		ldr	r2, .L69
ARM GAS  C:\Users\JEFFSN~1\AppData\Local\Temp\ccUrH2Ie.s 			page 24


 783 00f0 9370     		strb	r3, [r2, #2]
 784              	.L63:
 290:main.c        ****         {
 785              		.loc 1 290 0
 786 00f2 2378     		ldrb	r3, [r4]	@ zero_extendqisi2
 787 00f4 B02B     		cmp	r3, #176
 788 00f6 1CD1     		bne	.L64
 290:main.c        ****         {
 789              		.loc 1 290 0 is_stmt 0 discriminator 1
 790 00f8 6378     		ldrb	r3, [r4, #1]	@ zero_extendqisi2
 791 00fa 042B     		cmp	r3, #4
 792 00fc 19D1     		bne	.L64
 793              	.LBB9:
 292:main.c        ****             
 794              		.loc 1 292 0 is_stmt 1
 795 00fe A578     		ldrb	r5, [r4, #2]	@ zero_extendqisi2
 796 0100 254B     		ldr	r3, .L69
 797 0102 DB78     		ldrb	r3, [r3, #3]	@ zero_extendqisi2
 798 0104 03EBC515 		add	r5, r3, r5, lsl #7
 799 0108 EDB2     		uxtb	r5, r5
 800              	.LVL71:
 294:main.c        ****             {
 801              		.loc 1 294 0
 802 010a 274B     		ldr	r3, .L69+16
 803 010c 5B7A     		ldrb	r3, [r3, #9]	@ zero_extendqisi2
 804 010e 9D42     		cmp	r5, r3
 805 0110 0FD8     		bhi	.L64
 294:main.c        ****             {
 806              		.loc 1 294 0 is_stmt 0 discriminator 1
 807 0112 254B     		ldr	r3, .L69+16
 808 0114 9B7A     		ldrb	r3, [r3, #10]	@ zero_extendqisi2
 809 0116 9D42     		cmp	r5, r3
 810 0118 0BD3     		bcc	.L64
 296:main.c        ****                 EEPROMarray[4] = tempIDAC;
 811              		.loc 1 296 0 is_stmt 1
 812 011a 2846     		mov	r0, r5
 813 011c FFF7FEFF 		bl	setIDAC
 814              	.LVL72:
 297:main.c        ****                 eepromReturnValue = Em_EEPROM_Write(LOGICAL_EEPROM_START, EEPROMarray, LOGICAL_EEPR
 815              		.loc 1 297 0
 816 0120 1E49     		ldr	r1, .L69+4
 817 0122 0D71     		strb	r5, [r1, #4]
 298:main.c        ****             }
 818              		.loc 1 298 0
 819 0124 1E4B     		ldr	r3, .L69+8
 820 0126 0F22     		movs	r2, #15
 821 0128 0020     		movs	r0, #0
 822 012a FFF7FEFF 		bl	Cy_Em_EEPROM_Write
 823              	.LVL73:
 824 012e 1D4B     		ldr	r3, .L69+12
 825 0130 1870     		strb	r0, [r3]
 826              	.LVL74:
 827              	.L64:
 828              	.LBE9:
 301:main.c        ****         {
 829              		.loc 1 301 0
 830 0132 2378     		ldrb	r3, [r4]	@ zero_extendqisi2
ARM GAS  C:\Users\JEFFSN~1\AppData\Local\Temp\ccUrH2Ie.s 			page 25


 831 0134 B02B     		cmp	r3, #176
 832 0136 08D1     		bne	.L65
 301:main.c        ****         {
 833              		.loc 1 301 0 is_stmt 0 discriminator 1
 834 0138 6378     		ldrb	r3, [r4, #1]	@ zero_extendqisi2
 835 013a 052B     		cmp	r3, #5
 836 013c 05D1     		bne	.L65
 303:main.c        ****             {
 837              		.loc 1 303 0 is_stmt 1
 838 013e A378     		ldrb	r3, [r4, #2]	@ zero_extendqisi2
 839 0140 13F0800F 		tst	r3, #128
 840 0144 01D1     		bne	.L65
 305:main.c        ****             }
 841              		.loc 1 305 0
 842 0146 144A     		ldr	r2, .L69
 843 0148 D370     		strb	r3, [r2, #3]
 844              	.L65:
 311:main.c        ****         {
 845              		.loc 1 311 0
 846 014a 2378     		ldrb	r3, [r4]	@ zero_extendqisi2
 847 014c B02B     		cmp	r3, #176
 848 014e 17D1     		bne	.L66
 311:main.c        ****         {
 849              		.loc 1 311 0 is_stmt 0 discriminator 1
 850 0150 6378     		ldrb	r3, [r4, #1]	@ zero_extendqisi2
 851 0152 062B     		cmp	r3, #6
 852 0154 14D1     		bne	.L66
 853              	.LBB10:
 313:main.c        ****             if ((tempScanSpeed >= minScanSpeed) && (tempScanSpeed <= maxScanSpeed))
 854              		.loc 1 313 0 is_stmt 1
 855 0156 A578     		ldrb	r5, [r4, #2]	@ zero_extendqisi2
 856              	.LVL75:
 314:main.c        ****             {
 857              		.loc 1 314 0
 858 0158 0F4B     		ldr	r3, .L69
 859 015a 1B78     		ldrb	r3, [r3]	@ zero_extendqisi2
 860 015c 9D42     		cmp	r5, r3
 861 015e 0FD3     		bcc	.L66
 314:main.c        ****             {
 862              		.loc 1 314 0 is_stmt 0 discriminator 1
 863 0160 114B     		ldr	r3, .L69+16
 864 0162 9B78     		ldrb	r3, [r3, #2]	@ zero_extendqisi2
 865 0164 9D42     		cmp	r5, r3
 866 0166 0BD8     		bhi	.L66
 316:main.c        ****                 EEPROMarray[5] = tempScanSpeed;
 867              		.loc 1 316 0 is_stmt 1
 868 0168 2846     		mov	r0, r5
 869 016a FFF7FEFF 		bl	setScanSpeed
 870              	.LVL76:
 317:main.c        ****                 eepromReturnValue = Em_EEPROM_Write(LOGICAL_EEPROM_START, EEPROMarray, LOGICAL_EEPR
 871              		.loc 1 317 0
 872 016e 0B49     		ldr	r1, .L69+4
 873 0170 4D71     		strb	r5, [r1, #5]
 318:main.c        ****             }
 874              		.loc 1 318 0
 875 0172 0B4B     		ldr	r3, .L69+8
 876 0174 0F22     		movs	r2, #15
ARM GAS  C:\Users\JEFFSN~1\AppData\Local\Temp\ccUrH2Ie.s 			page 26


 877 0176 0020     		movs	r0, #0
 878 0178 FFF7FEFF 		bl	Cy_Em_EEPROM_Write
 879              	.LVL77:
 880 017c 094B     		ldr	r3, .L69+12
 881 017e 1870     		strb	r0, [r3]
 882              	.LVL78:
 883              	.L66:
 884              	.LBE10:
 323:main.c        ****         {
 885              		.loc 1 323 0
 886 0180 2378     		ldrb	r3, [r4]	@ zero_extendqisi2
 887 0182 902B     		cmp	r3, #144
 888 0184 04D1     		bne	.L67
 323:main.c        ****         {
 889              		.loc 1 323 0 is_stmt 0 discriminator 1
 890 0186 6378     		ldrb	r3, [r4, #1]	@ zero_extendqisi2
 891 0188 3C2B     		cmp	r3, #60
 892 018a 01D1     		bne	.L67
 325:main.c        ****         }
 893              		.loc 1 325 0 is_stmt 1
 894 018c FFF7FEFF 		bl	CapSense_InitializeAllBaselines
 895              	.LVL79:
 896              	.L67:
 329:main.c        ****         
 897              		.loc 1 329 0
 898 0190 FFF7FEFF 		bl	CapSense_InitializeAllBaselines
 899              	.LVL80:
 900 0194 38BD     		pop	{r3, r4, r5, pc}
 901              	.LVL81:
 902              	.L70:
 903 0196 00BF     		.align	2
 904              	.L69:
 905 0198 00000000 		.word	.LANCHOR1
 906 019c 00000000 		.word	EEPROMarray
 907 01a0 00000000 		.word	Em_EEPROM_context
 908 01a4 00000000 		.word	eepromReturnValue
 909 01a8 00000000 		.word	.LANCHOR0
 910              		.cfi_endproc
 911              	.LFE65:
 912              		.size	USB_callbackLocalMidiEvent, .-USB_callbackLocalMidiEvent
 913              		.global	sensorResolution
 914              		.global	minScanSpeed
 915              		.global	maxScanSpeed
 916              		.global	IDACLowByte
 917              		.global	clockDividerLowByte
 918              		.global	minIDAC
 919              		.global	maxIDAC
 920              		.global	minResolution
 921              		.global	maxResolution
 922              		.global	delayBetweenLoops
 923              		.global	minClockDivider
 924              		.global	maxClockDivider
 925              		.global	clockDivider
 926              		.global	maxActiveSensors
 927              		.global	rawVsCooked
 928              		.global	numActiveSensors
 929              		.comm	capSensorsPrev,52,4
ARM GAS  C:\Users\JEFFSN~1\AppData\Local\Temp\ccUrH2Ie.s 			page 27


 930              		.comm	EEPROMarray,15,4
 931              		.comm	eepromReturnValue,1,1
 932              		.global	Em_EEPROM_em_EepromStorage
 933              		.section	.rodata
 934              		.align	8
 935              		.set	.LANCHOR2,. + 0
 936              		.type	Em_EEPROM_em_EepromStorage, %object
 937              		.size	Em_EEPROM_em_EepromStorage, 5120
 938              	Em_EEPROM_em_EepromStorage:
 939 0000 00000000 		.space	5120
 939      00000000 
 939      00000000 
 939      00000000 
 939      00000000 
 940              		.data
 941              		.set	.LANCHOR0,. + 0
 942              		.type	numActiveSensors, %object
 943              		.size	numActiveSensors, 1
 944              	numActiveSensors:
 945 0000 02       		.byte	2
 946              		.type	maxActiveSensors, %object
 947              		.size	maxActiveSensors, 1
 948              	maxActiveSensors:
 949 0001 1A       		.byte	26
 950              		.type	maxScanSpeed, %object
 951              		.size	maxScanSpeed, 1
 952              	maxScanSpeed:
 953 0002 03       		.byte	3
 954              		.type	sensorResolution, %object
 955              		.size	sensorResolution, 1
 956              	sensorResolution:
 957 0003 0A       		.byte	10
 958              		.type	maxResolution, %object
 959              		.size	maxResolution, 1
 960              	maxResolution:
 961 0004 10       		.byte	16
 962              		.type	minResolution, %object
 963              		.size	minResolution, 1
 964              	minResolution:
 965 0005 08       		.byte	8
 966              		.type	maxClockDivider, %object
 967              		.size	maxClockDivider, 1
 968              	maxClockDivider:
 969 0006 FF       		.byte	-1
 970              		.type	minClockDivider, %object
 971              		.size	minClockDivider, 1
 972              	minClockDivider:
 973 0007 01       		.byte	1
 974              		.type	clockDivider, %object
 975              		.size	clockDivider, 1
 976              	clockDivider:
 977 0008 0B       		.byte	11
 978              		.type	maxIDAC, %object
 979              		.size	maxIDAC, 1
 980              	maxIDAC:
 981 0009 FF       		.byte	-1
 982              		.type	minIDAC, %object
ARM GAS  C:\Users\JEFFSN~1\AppData\Local\Temp\ccUrH2Ie.s 			page 28


 983              		.size	minIDAC, 1
 984              	minIDAC:
 985 000a 01       		.byte	1
 986              		.type	delayBetweenLoops, %object
 987              		.size	delayBetweenLoops, 1
 988              	delayBetweenLoops:
 989 000b 03       		.byte	3
 990              		.bss
 991              		.set	.LANCHOR1,. + 0
 992              		.type	minScanSpeed, %object
 993              		.size	minScanSpeed, 1
 994              	minScanSpeed:
 995 0000 00       		.space	1
 996              		.type	rawVsCooked, %object
 997              		.size	rawVsCooked, 1
 998              	rawVsCooked:
 999 0001 00       		.space	1
 1000              		.type	clockDividerLowByte, %object
 1001              		.size	clockDividerLowByte, 1
 1002              	clockDividerLowByte:
 1003 0002 00       		.space	1
 1004              		.type	IDACLowByte, %object
 1005              		.size	IDACLowByte, 1
 1006              	IDACLowByte:
 1007 0003 00       		.space	1
 1008              		.text
 1009              	.Letext0:
 1010              		.file 2 "c:\\program files (x86)\\cypress\\psoc creator\\4.2\\psoc creator\\import\\gnu\\arm\\5.4.
 1011              		.file 3 "c:\\program files (x86)\\cypress\\psoc creator\\4.2\\psoc creator\\import\\gnu\\arm\\5.4.
 1012              		.file 4 "Generated_Source\\PSoC5/cytypes.h"
 1013              		.file 5 "Generated_Source\\PSoC5/cy_em_eeprom.h"
 1014              		.file 6 "Generated_Source\\PSoC5/CapSense.h"
 1015              		.file 7 "Generated_Source\\PSoC5/CapSense_CSHL.h"
 1016              		.file 8 "Generated_Source\\PSoC5/Em_EEPROM.h"
 1017              		.file 9 "Generated_Source\\PSoC5/core_cm3.h"
 1018              		.file 10 "Generated_Source\\PSoC5/LED1.h"
 1019              		.file 11 "Generated_Source\\PSoC5/USB_midi.h"
 1020              		.file 12 "Generated_Source\\PSoC5/USB.h"