ARM GAS  C:\Users\JEFFSN~1\AppData\Local\Temp\ccCLplwz.s 			page 1


   1              		.syntax unified
   2              		.cpu cortex-m3
   3              		.fpu softvfp
   4              		.eabi_attribute 20, 1
   5              		.eabi_attribute 21, 1
   6              		.eabi_attribute 23, 3
   7              		.eabi_attribute 24, 1
   8              		.eabi_attribute 25, 1
   9              		.eabi_attribute 26, 1
  10              		.eabi_attribute 30, 1
  11              		.eabi_attribute 34, 1
  12              		.eabi_attribute 18, 4
  13              		.thumb
  14              		.syntax unified
  15              		.file	"USBMIDI_midi.c"
  16              		.text
  17              	.Ltext0:
  18              		.cfi_sections	.debug_frame
  19              		.section	.text.USBMIDI_MIDI_Init,"ax",%progbits
  20              		.align	2
  21              		.global	USBMIDI_MIDI_Init
  22              		.thumb
  23              		.thumb_func
  24              		.type	USBMIDI_MIDI_Init, %function
  25              	USBMIDI_MIDI_Init:
  26              	.LFB0:
  27              		.file 1 "Generated_Source\\PSoC5\\USBMIDI_midi.c"
   1:Generated_Source\PSoC5/USBMIDI_midi.c **** /***************************************************************************//**
   2:Generated_Source\PSoC5/USBMIDI_midi.c **** * \file USBMIDI_midi.c
   3:Generated_Source\PSoC5/USBMIDI_midi.c **** * \version 3.20
   4:Generated_Source\PSoC5/USBMIDI_midi.c **** *
   5:Generated_Source\PSoC5/USBMIDI_midi.c **** * \brief
   6:Generated_Source\PSoC5/USBMIDI_midi.c **** *  MIDI Streaming request handler.
   7:Generated_Source\PSoC5/USBMIDI_midi.c **** *  This file contains routines for sending and receiving MIDI
   8:Generated_Source\PSoC5/USBMIDI_midi.c **** *  messages, and handles running status in both directions.
   9:Generated_Source\PSoC5/USBMIDI_midi.c **** *
  10:Generated_Source\PSoC5/USBMIDI_midi.c **** * Related Document:
  11:Generated_Source\PSoC5/USBMIDI_midi.c **** *  Universal Serial Bus Device Class Definition for MIDI Devices Release 1.0
  12:Generated_Source\PSoC5/USBMIDI_midi.c **** *  MIDI 1.0 Detailed Specification Document Version 4.2
  13:Generated_Source\PSoC5/USBMIDI_midi.c **** *
  14:Generated_Source\PSoC5/USBMIDI_midi.c **** ********************************************************************************
  15:Generated_Source\PSoC5/USBMIDI_midi.c **** * \copyright
  16:Generated_Source\PSoC5/USBMIDI_midi.c **** * Copyright 2008-2016, Cypress Semiconductor Corporation.  All rights reserved.
  17:Generated_Source\PSoC5/USBMIDI_midi.c **** * You may use this file only in accordance with the license, terms, conditions,
  18:Generated_Source\PSoC5/USBMIDI_midi.c **** * disclaimers, and limitations in the end user license agreement accompanying
  19:Generated_Source\PSoC5/USBMIDI_midi.c **** * the software package with which this file was provided.
  20:Generated_Source\PSoC5/USBMIDI_midi.c **** *******************************************************************************/
  21:Generated_Source\PSoC5/USBMIDI_midi.c **** 
  22:Generated_Source\PSoC5/USBMIDI_midi.c **** #include "USBMIDI_midi.h"
  23:Generated_Source\PSoC5/USBMIDI_midi.c **** #include "USBMIDI_pvt.h"
  24:Generated_Source\PSoC5/USBMIDI_midi.c **** #include "cyapicallbacks.h"
  25:Generated_Source\PSoC5/USBMIDI_midi.c **** 
  26:Generated_Source\PSoC5/USBMIDI_midi.c **** #if defined(USBMIDI_ENABLE_MIDI_STREAMING)
  27:Generated_Source\PSoC5/USBMIDI_midi.c **** 
  28:Generated_Source\PSoC5/USBMIDI_midi.c **** /***************************************
  29:Generated_Source\PSoC5/USBMIDI_midi.c **** *    MIDI Constants
  30:Generated_Source\PSoC5/USBMIDI_midi.c **** ***************************************/
ARM GAS  C:\Users\JEFFSN~1\AppData\Local\Temp\ccCLplwz.s 			page 2


  31:Generated_Source\PSoC5/USBMIDI_midi.c **** 
  32:Generated_Source\PSoC5/USBMIDI_midi.c **** #if (USBMIDI_MIDI_EXT_MODE >= USBMIDI_ONE_EXT_INTRF)
  33:Generated_Source\PSoC5/USBMIDI_midi.c ****     /* The Size of the MIDI messages (MIDI Table 4-1) */
  34:Generated_Source\PSoC5/USBMIDI_midi.c ****     static const uint8 CYCODE USBMIDI_MIDI_SIZE[] = {
  35:Generated_Source\PSoC5/USBMIDI_midi.c ****     /*  Miscellaneous function codes(Reserved)  */ 0x03u,
  36:Generated_Source\PSoC5/USBMIDI_midi.c ****     /*  Cable events (Reserved)                 */ 0x03u,
  37:Generated_Source\PSoC5/USBMIDI_midi.c ****     /*  Two-byte System Common messages         */ 0x02u,
  38:Generated_Source\PSoC5/USBMIDI_midi.c ****     /*  Three-byte System Common messages       */ 0x03u,
  39:Generated_Source\PSoC5/USBMIDI_midi.c ****     /*  SysEx starts or continues               */ 0x03u,
  40:Generated_Source\PSoC5/USBMIDI_midi.c ****     /*  Single-byte System Common Message or
  41:Generated_Source\PSoC5/USBMIDI_midi.c ****         SysEx ends with following single byte   */ 0x01u,
  42:Generated_Source\PSoC5/USBMIDI_midi.c ****     /*  SysEx ends with following two bytes     */ 0x02u,
  43:Generated_Source\PSoC5/USBMIDI_midi.c ****     /*  SysEx ends with following three bytes   */ 0x03u,
  44:Generated_Source\PSoC5/USBMIDI_midi.c ****     /*  Note-off                                */ 0x03u,
  45:Generated_Source\PSoC5/USBMIDI_midi.c ****     /*  Note-on                                 */ 0x03u,
  46:Generated_Source\PSoC5/USBMIDI_midi.c ****     /*  Poly-KeyPress                           */ 0x03u,
  47:Generated_Source\PSoC5/USBMIDI_midi.c ****     /*  Control Change                          */ 0x03u,
  48:Generated_Source\PSoC5/USBMIDI_midi.c ****     /*  Program Change                          */ 0x02u,
  49:Generated_Source\PSoC5/USBMIDI_midi.c ****     /*  Channel Pressure                        */ 0x02u,
  50:Generated_Source\PSoC5/USBMIDI_midi.c ****     /*  PitchBend Change                        */ 0x03u,
  51:Generated_Source\PSoC5/USBMIDI_midi.c ****     /*  Single Byte                             */ 0x01u
  52:Generated_Source\PSoC5/USBMIDI_midi.c ****     };
  53:Generated_Source\PSoC5/USBMIDI_midi.c **** #endif  /* USBMIDI_MIDI_EXT_MODE >= USBMIDI_ONE_EXT_INTRF */
  54:Generated_Source\PSoC5/USBMIDI_midi.c **** 
  55:Generated_Source\PSoC5/USBMIDI_midi.c **** 
  56:Generated_Source\PSoC5/USBMIDI_midi.c **** 
  57:Generated_Source\PSoC5/USBMIDI_midi.c **** /***************************************
  58:Generated_Source\PSoC5/USBMIDI_midi.c **** *  Global variables
  59:Generated_Source\PSoC5/USBMIDI_midi.c **** ***************************************/
  60:Generated_Source\PSoC5/USBMIDI_midi.c **** 
  61:Generated_Source\PSoC5/USBMIDI_midi.c **** 
  62:Generated_Source\PSoC5/USBMIDI_midi.c **** #if (USBMIDI_MIDI_IN_BUFF_SIZE > 0)
  63:Generated_Source\PSoC5/USBMIDI_midi.c ****     #if (USBMIDI_MIDI_IN_BUFF_SIZE >= 256)
  64:Generated_Source\PSoC5/USBMIDI_midi.c ****         /** Input endpoint buffer pointer. This pointer is used as an index for the
  65:Generated_Source\PSoC5/USBMIDI_midi.c ****         * USBMIDI_midiInBuffer to write data. It is cleared to zero by the
  66:Generated_Source\PSoC5/USBMIDI_midi.c ****         * USBMIDI_MIDI_EP_Init() function.*/
  67:Generated_Source\PSoC5/USBMIDI_midi.c ****         volatile uint16 USBMIDI_midiInPointer;                            /* Input endpoint buffer 
  68:Generated_Source\PSoC5/USBMIDI_midi.c ****     #else
  69:Generated_Source\PSoC5/USBMIDI_midi.c ****         volatile uint8 USBMIDI_midiInPointer;                             /* Input endpoint buffer 
  70:Generated_Source\PSoC5/USBMIDI_midi.c ****     #endif /* (USBMIDI_MIDI_IN_BUFF_SIZE >= 256) */
  71:Generated_Source\PSoC5/USBMIDI_midi.c ****     /** Contains the midi IN endpoint number, It is initialized after a
  72:Generated_Source\PSoC5/USBMIDI_midi.c ****      * SET_CONFIGURATION request based on a user descriptor. It is used in MIDI
  73:Generated_Source\PSoC5/USBMIDI_midi.c ****      * APIs to send data to the host.*/
  74:Generated_Source\PSoC5/USBMIDI_midi.c ****     volatile uint8 USBMIDI_midi_in_ep;
  75:Generated_Source\PSoC5/USBMIDI_midi.c ****     /** Input endpoint buffer with a length equal to MIDI IN EP Max Packet Size.
  76:Generated_Source\PSoC5/USBMIDI_midi.c ****      * This buffer is used to save and combine the data received from the UARTs,
  77:Generated_Source\PSoC5/USBMIDI_midi.c ****      * generated internally by USBMIDI_PutUsbMidiIn() function messages, or both.
  78:Generated_Source\PSoC5/USBMIDI_midi.c ****      * The USBMIDI_MIDI_IN_Service() function transfers the data from this buffer to the host.*/
  79:Generated_Source\PSoC5/USBMIDI_midi.c ****     uint8 USBMIDI_midiInBuffer[USBMIDI_MIDI_IN_BUFF_SIZE];       /* Input endpoint buffer */
  80:Generated_Source\PSoC5/USBMIDI_midi.c **** #endif /* (USBMIDI_MIDI_IN_BUFF_SIZE > 0) */
  81:Generated_Source\PSoC5/USBMIDI_midi.c **** 
  82:Generated_Source\PSoC5/USBMIDI_midi.c **** #if (USBMIDI_MIDI_OUT_BUFF_SIZE > 0)
  83:Generated_Source\PSoC5/USBMIDI_midi.c ****     /** Contains the midi OUT endpoint number. It is initialized after a
  84:Generated_Source\PSoC5/USBMIDI_midi.c ****      * SET_CONFIGURATION request based on a user descriptor. It is used in
  85:Generated_Source\PSoC5/USBMIDI_midi.c ****      * MIDI APIs to receive data from the host.*/
  86:Generated_Source\PSoC5/USBMIDI_midi.c ****     volatile uint8 USBMIDI_midi_out_ep;                                   /* Output endpoint number
  87:Generated_Source\PSoC5/USBMIDI_midi.c ****     /** Output endpoint buffer with a length equal to MIDI OUT EP Max Packet Size.
ARM GAS  C:\Users\JEFFSN~1\AppData\Local\Temp\ccCLplwz.s 			page 3


  88:Generated_Source\PSoC5/USBMIDI_midi.c ****      * This buffer is used by the USBMIDI_MIDI_OUT_EP_Service() function to save
  89:Generated_Source\PSoC5/USBMIDI_midi.c ****      * the data received from the host. The received data is then parsed. The
  90:Generated_Source\PSoC5/USBMIDI_midi.c ****      * parsed data is transferred to the UARTs buffer and also used for internal
  91:Generated_Source\PSoC5/USBMIDI_midi.c ****      * processing by the USBMIDI_callbackLocalMidiEvent() function.*/
  92:Generated_Source\PSoC5/USBMIDI_midi.c ****     uint8 USBMIDI_midiOutBuffer[USBMIDI_MIDI_OUT_BUFF_SIZE];     /* Output endpoint buffer */
  93:Generated_Source\PSoC5/USBMIDI_midi.c **** #endif /* (USBMIDI_MIDI_OUT_BUFF_SIZE > 0) */
  94:Generated_Source\PSoC5/USBMIDI_midi.c **** 
  95:Generated_Source\PSoC5/USBMIDI_midi.c **** #if (USBMIDI_MIDI_EXT_MODE >= USBMIDI_ONE_EXT_INTRF)
  96:Generated_Source\PSoC5/USBMIDI_midi.c **** 
  97:Generated_Source\PSoC5/USBMIDI_midi.c ****     static USBMIDI_MIDI_RX_STATUS USBMIDI_MIDI1_Event;            /* MIDI RX status structure */
  98:Generated_Source\PSoC5/USBMIDI_midi.c ****     static volatile uint8 USBMIDI_MIDI1_TxRunStat;                         /* MIDI Output running s
  99:Generated_Source\PSoC5/USBMIDI_midi.c ****     /** The USBFS supports a maximum of two external Jacks. The two flag variables
 100:Generated_Source\PSoC5/USBMIDI_midi.c ****      * are used to represent the status of two external Jacks. These optional variables
 101:Generated_Source\PSoC5/USBMIDI_midi.c ****      * are allocated when External Mode is enabled. The following flags help to
 102:Generated_Source\PSoC5/USBMIDI_midi.c ****      * detect and generate responses for SysEx messages. The USBMIDI_MIDI2_InqFlags
 103:Generated_Source\PSoC5/USBMIDI_midi.c ****      * is optional and is not available when only one external Jack is configured.
 104:Generated_Source\PSoC5/USBMIDI_midi.c ****      * Flag                          | Description
 105:Generated_Source\PSoC5/USBMIDI_midi.c ****      * ------------------------------|---------------------------------------
 106:Generated_Source\PSoC5/USBMIDI_midi.c ****      * USBMIDI_INQ_SYSEX_FLAG        | Non-real-time SysEx message received.
 107:Generated_Source\PSoC5/USBMIDI_midi.c ****      * USBMIDI_INQ_IDENTITY_REQ_FLAG | Identity Request received. You should clear this bit when an
 108:Generated_Source\PSoC5/USBMIDI_midi.c ****      * SysEX messages are intended for local device and shouldn't go out on the
 109:Generated_Source\PSoC5/USBMIDI_midi.c ****      * external MIDI jack, this flag indicates when a MIDI SysEx OUT message is
 110:Generated_Source\PSoC5/USBMIDI_midi.c ****      * in progress for the application */
 111:Generated_Source\PSoC5/USBMIDI_midi.c ****     volatile uint8 USBMIDI_MIDI1_InqFlags;                                 /* Device inquiry flag *
 112:Generated_Source\PSoC5/USBMIDI_midi.c **** 
 113:Generated_Source\PSoC5/USBMIDI_midi.c ****     #if (USBMIDI_MIDI_EXT_MODE >= USBMIDI_TWO_EXT_INTRF)
 114:Generated_Source\PSoC5/USBMIDI_midi.c ****         static USBMIDI_MIDI_RX_STATUS USBMIDI_MIDI2_Event;        /* MIDI RX status structure */
 115:Generated_Source\PSoC5/USBMIDI_midi.c ****         static volatile uint8 USBMIDI_MIDI2_TxRunStat;                     /* MIDI Output running s
 116:Generated_Source\PSoC5/USBMIDI_midi.c ****         /** See description of \ref USBMIDI_MIDI1_InqFlags*/
 117:Generated_Source\PSoC5/USBMIDI_midi.c ****         volatile uint8 USBMIDI_MIDI2_InqFlags;                             /* Device inquiry flag *
 118:Generated_Source\PSoC5/USBMIDI_midi.c ****     #endif /* (USBMIDI_MIDI_EXT_MODE >= USBMIDI_TWO_EXT_INTRF) */
 119:Generated_Source\PSoC5/USBMIDI_midi.c **** #endif /* (USBMIDI_MIDI_EXT_MODE >= USBMIDI_ONE_EXT_INTRF) */
 120:Generated_Source\PSoC5/USBMIDI_midi.c **** 
 121:Generated_Source\PSoC5/USBMIDI_midi.c **** 
 122:Generated_Source\PSoC5/USBMIDI_midi.c **** /***************************************
 123:Generated_Source\PSoC5/USBMIDI_midi.c **** * Custom Declarations
 124:Generated_Source\PSoC5/USBMIDI_midi.c **** ***************************************/
 125:Generated_Source\PSoC5/USBMIDI_midi.c **** 
 126:Generated_Source\PSoC5/USBMIDI_midi.c **** /* `#START MIDI_CUSTOM_DECLARATIONS` Place your declaration here */
 127:Generated_Source\PSoC5/USBMIDI_midi.c **** 
 128:Generated_Source\PSoC5/USBMIDI_midi.c **** /* `#END` */
 129:Generated_Source\PSoC5/USBMIDI_midi.c **** 
 130:Generated_Source\PSoC5/USBMIDI_midi.c **** 
 131:Generated_Source\PSoC5/USBMIDI_midi.c **** #if (USBMIDI_ENABLE_MIDI_API != 0u)
 132:Generated_Source\PSoC5/USBMIDI_midi.c **** /*******************************************************************************
 133:Generated_Source\PSoC5/USBMIDI_midi.c **** * Function Name: USBMIDI_MIDI_Init
 134:Generated_Source\PSoC5/USBMIDI_midi.c **** ****************************************************************************//**
 135:Generated_Source\PSoC5/USBMIDI_midi.c **** *
 136:Generated_Source\PSoC5/USBMIDI_midi.c **** *  This function initializes the MIDI interface and UART(s) to be ready to
 137:Generated_Source\PSoC5/USBMIDI_midi.c **** *   receive data from the PC and MIDI ports.
 138:Generated_Source\PSoC5/USBMIDI_midi.c **** *
 139:Generated_Source\PSoC5/USBMIDI_midi.c **** * \globalvars
 140:Generated_Source\PSoC5/USBMIDI_midi.c **** *
 141:Generated_Source\PSoC5/USBMIDI_midi.c **** *  \ref USBMIDI_midiInBuffer: This buffer is used for saving and combining
 142:Generated_Source\PSoC5/USBMIDI_midi.c **** *    the received data from UART(s) and(or) generated internally by
 143:Generated_Source\PSoC5/USBMIDI_midi.c **** *    PutUsbMidiIn() function messages. USBMIDI_MIDI_IN_EP_Service()
 144:Generated_Source\PSoC5/USBMIDI_midi.c **** *    function transfers the data from this buffer to the PC.
ARM GAS  C:\Users\JEFFSN~1\AppData\Local\Temp\ccCLplwz.s 			page 4


 145:Generated_Source\PSoC5/USBMIDI_midi.c **** *
 146:Generated_Source\PSoC5/USBMIDI_midi.c **** *  \ref USBMIDI_midiOutBuffer: This buffer is used by the
 147:Generated_Source\PSoC5/USBMIDI_midi.c **** *    USBMIDI_MIDI_OUT_Service() function for saving the received
 148:Generated_Source\PSoC5/USBMIDI_midi.c **** *    from the PC data, then the data are parsed and transferred to UART(s)
 149:Generated_Source\PSoC5/USBMIDI_midi.c **** *    buffer and to the internal processing by the
 150:Generated_Source\PSoC5/USBMIDI_midi.c **** *
 151:Generated_Source\PSoC5/USBMIDI_midi.c **** *  \ref USBMIDI_callbackLocalMidiEvent function.
 152:Generated_Source\PSoC5/USBMIDI_midi.c **** *
 153:Generated_Source\PSoC5/USBMIDI_midi.c **** *  \ref USBMIDI_midi_out_ep: Used as an OUT endpoint number.
 154:Generated_Source\PSoC5/USBMIDI_midi.c **** *
 155:Generated_Source\PSoC5/USBMIDI_midi.c **** *  \ref USBMIDI_midi_in_ep: Used as an IN endpoint number.
 156:Generated_Source\PSoC5/USBMIDI_midi.c **** *
 157:Generated_Source\PSoC5/USBMIDI_midi.c **** *   \ref USBMIDI_midiInPointer: Initialized to zero.
 158:Generated_Source\PSoC5/USBMIDI_midi.c **** *
 159:Generated_Source\PSoC5/USBMIDI_midi.c **** * \sideeffect
 160:Generated_Source\PSoC5/USBMIDI_midi.c **** *   The priority of the UART RX ISR should be higher than UART TX ISR. To do
 161:Generated_Source\PSoC5/USBMIDI_midi.c **** *   that this function changes the priority of the UARTs TX and RX interrupts.
 162:Generated_Source\PSoC5/USBMIDI_midi.c **** *
 163:Generated_Source\PSoC5/USBMIDI_midi.c **** * \reentrant
 164:Generated_Source\PSoC5/USBMIDI_midi.c **** *  No
 165:Generated_Source\PSoC5/USBMIDI_midi.c **** *
 166:Generated_Source\PSoC5/USBMIDI_midi.c **** *******************************************************************************/
 167:Generated_Source\PSoC5/USBMIDI_midi.c **** void USBMIDI_MIDI_Init(void) 
 168:Generated_Source\PSoC5/USBMIDI_midi.c **** {
  28              		.loc 1 168 0
  29              		.cfi_startproc
  30              		@ args = 0, pretend = 0, frame = 0
  31              		@ frame_needed = 0, uses_anonymous_args = 0
  32 0000 08B5     		push	{r3, lr}
  33              		.cfi_def_cfa_offset 8
  34              		.cfi_offset 3, -8
  35              		.cfi_offset 14, -4
 169:Generated_Source\PSoC5/USBMIDI_midi.c **** #if (USBMIDI_MIDI_IN_BUFF_SIZE > 0)
 170:Generated_Source\PSoC5/USBMIDI_midi.c ****    USBMIDI_midiInPointer = 0u;
  36              		.loc 1 170 0
  37 0002 0022     		movs	r2, #0
  38 0004 034B     		ldr	r3, .L3
  39 0006 1A70     		strb	r2, [r3]
 171:Generated_Source\PSoC5/USBMIDI_midi.c **** #endif /* (USBMIDI_MIDI_IN_BUFF_SIZE > 0) */
 172:Generated_Source\PSoC5/USBMIDI_midi.c **** 
 173:Generated_Source\PSoC5/USBMIDI_midi.c **** #if (USBMIDI_EP_MANAGEMENT_DMA_AUTO)
 174:Generated_Source\PSoC5/USBMIDI_midi.c ****     #if (USBMIDI_MIDI_IN_BUFF_SIZE > 0)
 175:Generated_Source\PSoC5/USBMIDI_midi.c ****         /* Provide buffer for IN endpoint. */
 176:Generated_Source\PSoC5/USBMIDI_midi.c ****         USBMIDI_LoadInEP(USBMIDI_midi_in_ep, USBMIDI_midiInBuffer,
 177:Generated_Source\PSoC5/USBMIDI_midi.c ****                                                                USBMIDI_MIDI_IN_BUFF_SIZE);
 178:Generated_Source\PSoC5/USBMIDI_midi.c ****     #endif  /* (USBMIDI_MIDI_IN_BUFF_SIZE > 0) */
 179:Generated_Source\PSoC5/USBMIDI_midi.c **** 
 180:Generated_Source\PSoC5/USBMIDI_midi.c ****     #if (USBMIDI_MIDI_OUT_BUFF_SIZE > 0)
 181:Generated_Source\PSoC5/USBMIDI_midi.c ****         /* Provide buffer for OUT endpoint. */
 182:Generated_Source\PSoC5/USBMIDI_midi.c ****         (void)USBMIDI_ReadOutEP(USBMIDI_midi_out_ep, USBMIDI_midiOutBuffer,
 183:Generated_Source\PSoC5/USBMIDI_midi.c ****                                                                        USBMIDI_MIDI_OUT_BUFF_SIZE);
 184:Generated_Source\PSoC5/USBMIDI_midi.c ****     #endif /* (USBMIDI_MIDI_OUT_BUFF_SIZE > 0) */
 185:Generated_Source\PSoC5/USBMIDI_midi.c **** #endif /* (USBMIDI_EP_MANAGEMENT_DMA_AUTO) */
 186:Generated_Source\PSoC5/USBMIDI_midi.c **** 
 187:Generated_Source\PSoC5/USBMIDI_midi.c **** #if (USBMIDI_MIDI_OUT_BUFF_SIZE > 0)
 188:Generated_Source\PSoC5/USBMIDI_midi.c ****     USBMIDI_EnableOutEP(USBMIDI_midi_out_ep);
  40              		.loc 1 188 0
ARM GAS  C:\Users\JEFFSN~1\AppData\Local\Temp\ccCLplwz.s 			page 5


  41 0008 034B     		ldr	r3, .L3+4
  42 000a 1878     		ldrb	r0, [r3]	@ zero_extendqisi2
  43 000c FFF7FEFF 		bl	USBMIDI_EnableOutEP
  44              	.LVL0:
  45 0010 08BD     		pop	{r3, pc}
  46              	.L4:
  47 0012 00BF     		.align	2
  48              	.L3:
  49 0014 00000000 		.word	USBMIDI_midiInPointer
  50 0018 00000000 		.word	USBMIDI_midi_out_ep
  51              		.cfi_endproc
  52              	.LFE0:
  53              		.size	USBMIDI_MIDI_Init, .-USBMIDI_MIDI_Init
  54              		.section	.text.USBMIDI_MIDI_OUT_Service,"ax",%progbits
  55              		.align	2
  56              		.global	USBMIDI_MIDI_OUT_Service
  57              		.thumb
  58              		.thumb_func
  59              		.type	USBMIDI_MIDI_OUT_Service, %function
  60              	USBMIDI_MIDI_OUT_Service:
  61              	.LFB1:
 189:Generated_Source\PSoC5/USBMIDI_midi.c **** #endif /* (USBMIDI_MIDI_OUT_BUFF_SIZE > 0) */
 190:Generated_Source\PSoC5/USBMIDI_midi.c **** 
 191:Generated_Source\PSoC5/USBMIDI_midi.c ****     /* Initialize the MIDI port(s) */
 192:Generated_Source\PSoC5/USBMIDI_midi.c **** #if (USBMIDI_MIDI_EXT_MODE >= USBMIDI_ONE_EXT_INTRF)
 193:Generated_Source\PSoC5/USBMIDI_midi.c ****     USBMIDI_MIDI_InitInterface();
 194:Generated_Source\PSoC5/USBMIDI_midi.c **** #endif /* (USBMIDI_MIDI_EXT_MODE >= USBMIDI_ONE_EXT_INTRF) */
 195:Generated_Source\PSoC5/USBMIDI_midi.c **** }
 196:Generated_Source\PSoC5/USBMIDI_midi.c **** 
 197:Generated_Source\PSoC5/USBMIDI_midi.c **** 
 198:Generated_Source\PSoC5/USBMIDI_midi.c **** #if (USBMIDI_MIDI_OUT_BUFF_SIZE > 0)
 199:Generated_Source\PSoC5/USBMIDI_midi.c ****     /*******************************************************************************
 200:Generated_Source\PSoC5/USBMIDI_midi.c ****     * Function Name: USBMIDI_MIDI_OUT_Service
 201:Generated_Source\PSoC5/USBMIDI_midi.c ****     ****************************************************************************//**
 202:Generated_Source\PSoC5/USBMIDI_midi.c ****     *
 203:Generated_Source\PSoC5/USBMIDI_midi.c ****     *  This function services the traffic from the USBMIDI OUT endpoint and
 204:Generated_Source\PSoC5/USBMIDI_midi.c ****     *  sends the data to the MIDI output ports (TX UARTs). It is blocked by the
 205:Generated_Source\PSoC5/USBMIDI_midi.c ****     *  UART when not enough space is available in the UART TX buffer.
 206:Generated_Source\PSoC5/USBMIDI_midi.c ****     *  This function is automatically called from OUT EP ISR in DMA with
 207:Generated_Source\PSoC5/USBMIDI_midi.c ****     *  Automatic Memory Management mode. In Manual and DMA with Manual EP
 208:Generated_Source\PSoC5/USBMIDI_midi.c ****     *  Management modes you must call it from the main foreground task.
 209:Generated_Source\PSoC5/USBMIDI_midi.c ****     *
 210:Generated_Source\PSoC5/USBMIDI_midi.c ****     * \globalvars
 211:Generated_Source\PSoC5/USBMIDI_midi.c ****     *
 212:Generated_Source\PSoC5/USBMIDI_midi.c ****     *  \ref USBMIDI_midiOutBuffer: Used as temporary buffer between USB
 213:Generated_Source\PSoC5/USBMIDI_midi.c ****     *       internal memory and UART TX buffer.
 214:Generated_Source\PSoC5/USBMIDI_midi.c ****     *
 215:Generated_Source\PSoC5/USBMIDI_midi.c ****     *  \ref USBMIDI_midi_out_ep: Used as an OUT endpoint number.
 216:Generated_Source\PSoC5/USBMIDI_midi.c ****     *
 217:Generated_Source\PSoC5/USBMIDI_midi.c ****     * \reentrant
 218:Generated_Source\PSoC5/USBMIDI_midi.c ****     *  No
 219:Generated_Source\PSoC5/USBMIDI_midi.c ****     *
 220:Generated_Source\PSoC5/USBMIDI_midi.c ****     *******************************************************************************/
 221:Generated_Source\PSoC5/USBMIDI_midi.c ****     void USBMIDI_MIDI_OUT_Service(void) 
 222:Generated_Source\PSoC5/USBMIDI_midi.c ****     {
  62              		.loc 1 222 0
  63              		.cfi_startproc
ARM GAS  C:\Users\JEFFSN~1\AppData\Local\Temp\ccCLplwz.s 			page 6


  64              		@ args = 0, pretend = 0, frame = 0
  65              		@ frame_needed = 0, uses_anonymous_args = 0
  66 0000 38B5     		push	{r3, r4, r5, lr}
  67              		.cfi_def_cfa_offset 16
  68              		.cfi_offset 3, -16
  69              		.cfi_offset 4, -12
  70              		.cfi_offset 5, -8
  71              		.cfi_offset 14, -4
 223:Generated_Source\PSoC5/USBMIDI_midi.c ****     #if (USBMIDI_MIDI_OUT_BUFF_SIZE >= 256)
 224:Generated_Source\PSoC5/USBMIDI_midi.c ****         uint16 outLength;
 225:Generated_Source\PSoC5/USBMIDI_midi.c ****         uint16 outPointer;
 226:Generated_Source\PSoC5/USBMIDI_midi.c ****     #else
 227:Generated_Source\PSoC5/USBMIDI_midi.c ****         uint8 outLength;
 228:Generated_Source\PSoC5/USBMIDI_midi.c ****         uint8 outPointer;
 229:Generated_Source\PSoC5/USBMIDI_midi.c ****     #endif /* (USBMIDI_MIDI_OUT_BUFF_SIZE >= 256) */
 230:Generated_Source\PSoC5/USBMIDI_midi.c **** 
 231:Generated_Source\PSoC5/USBMIDI_midi.c ****         /* Service the USB MIDI output endpoint. */
 232:Generated_Source\PSoC5/USBMIDI_midi.c ****         if (USBMIDI_OUT_BUFFER_FULL == USBMIDI_GetEPState(USBMIDI_midi_out_ep))
  72              		.loc 1 232 0
  73 0002 124B     		ldr	r3, .L11
  74 0004 1878     		ldrb	r0, [r3]	@ zero_extendqisi2
  75 0006 FFF7FEFF 		bl	USBMIDI_GetEPState
  76              	.LVL1:
  77 000a 0128     		cmp	r0, #1
  78 000c 1DD1     		bne	.L5
 233:Generated_Source\PSoC5/USBMIDI_midi.c ****         {
 234:Generated_Source\PSoC5/USBMIDI_midi.c ****         #if (USBMIDI_MIDI_OUT_BUFF_SIZE >= 256)
 235:Generated_Source\PSoC5/USBMIDI_midi.c ****             outLength = USBMIDI_GetEPCount(USBMIDI_midi_out_ep);
 236:Generated_Source\PSoC5/USBMIDI_midi.c ****         #else
 237:Generated_Source\PSoC5/USBMIDI_midi.c ****             outLength = (uint8)USBMIDI_GetEPCount(USBMIDI_midi_out_ep);
  79              		.loc 1 237 0
  80 000e 0F4C     		ldr	r4, .L11
  81 0010 2078     		ldrb	r0, [r4]	@ zero_extendqisi2
  82 0012 FFF7FEFF 		bl	USBMIDI_GetEPCount
  83              	.LVL2:
 238:Generated_Source\PSoC5/USBMIDI_midi.c ****         #endif /* (USBMIDI_MIDI_OUT_BUFF_SIZE >= 256) */
 239:Generated_Source\PSoC5/USBMIDI_midi.c **** 
 240:Generated_Source\PSoC5/USBMIDI_midi.c ****         #if (!USBMIDI_EP_MANAGEMENT_DMA_AUTO)
 241:Generated_Source\PSoC5/USBMIDI_midi.c ****             #if (USBMIDI_MIDI_OUT_BUFF_SIZE >= 256)
 242:Generated_Source\PSoC5/USBMIDI_midi.c ****                 outLength = USBMIDI_ReadOutEP(USBMIDI_midi_out_ep,
 243:Generated_Source\PSoC5/USBMIDI_midi.c ****                                                        USBMIDI_midiOutBuffer, outLength);
 244:Generated_Source\PSoC5/USBMIDI_midi.c ****             #else
 245:Generated_Source\PSoC5/USBMIDI_midi.c ****                 outLength = (uint8)USBMIDI_ReadOutEP(USBMIDI_midi_out_ep,
  84              		.loc 1 245 0
  85 0016 2378     		ldrb	r3, [r4]	@ zero_extendqisi2
  86 0018 C2B2     		uxtb	r2, r0
  87 001a 0D49     		ldr	r1, .L11+4
  88 001c 1846     		mov	r0, r3
  89              	.LVL3:
  90 001e FFF7FEFF 		bl	USBMIDI_ReadOutEP
  91              	.LVL4:
  92 0022 C5B2     		uxtb	r5, r0
  93              	.LVL5:
 246:Generated_Source\PSoC5/USBMIDI_midi.c ****                                                               USBMIDI_midiOutBuffer, (uint16) outLe
 247:Generated_Source\PSoC5/USBMIDI_midi.c ****             #endif /* (USBMIDI_MIDI_OUT_BUFF_SIZE >= 256) */
 248:Generated_Source\PSoC5/USBMIDI_midi.c **** 
 249:Generated_Source\PSoC5/USBMIDI_midi.c ****             #if (USBMIDI_EP_MANAGEMENT_DMA_MANUAL)
ARM GAS  C:\Users\JEFFSN~1\AppData\Local\Temp\ccCLplwz.s 			page 7


 250:Generated_Source\PSoC5/USBMIDI_midi.c ****                 /* Wait until DMA complete transferring data from OUT endpoint buffer. */
 251:Generated_Source\PSoC5/USBMIDI_midi.c ****                 while (USBMIDI_OUT_BUFFER_FULL == USBMIDI_GetEPState(USBMIDI_midi_out_ep))
 252:Generated_Source\PSoC5/USBMIDI_midi.c ****                 {
 253:Generated_Source\PSoC5/USBMIDI_midi.c ****                 }
 254:Generated_Source\PSoC5/USBMIDI_midi.c **** 
 255:Generated_Source\PSoC5/USBMIDI_midi.c ****                 /* Enable OUT endpoint for communication with host. */
 256:Generated_Source\PSoC5/USBMIDI_midi.c ****                 USBMIDI_EnableOutEP(USBMIDI_midi_out_ep);
 257:Generated_Source\PSoC5/USBMIDI_midi.c ****             #endif /* (USBMIDI_EP_MANAGEMENT_DMA_MANUAL) */
 258:Generated_Source\PSoC5/USBMIDI_midi.c ****         #endif /* (!USBMIDI_EP_MANAGEMENT_DMA_AUTO) */
 259:Generated_Source\PSoC5/USBMIDI_midi.c **** 
 260:Generated_Source\PSoC5/USBMIDI_midi.c ****             if (outLength >= USBMIDI_EVENT_LENGTH)
  94              		.loc 1 260 0
  95 0024 032D     		cmp	r5, #3
  96 0026 0DD8     		bhi	.L9
  97 0028 38BD     		pop	{r3, r4, r5, pc}
  98              	.LVL6:
  99              	.L8:
 261:Generated_Source\PSoC5/USBMIDI_midi.c ****             {
 262:Generated_Source\PSoC5/USBMIDI_midi.c ****                 outPointer = 0u;
 263:Generated_Source\PSoC5/USBMIDI_midi.c ****                 while (outPointer < outLength)
 264:Generated_Source\PSoC5/USBMIDI_midi.c ****                 {
 265:Generated_Source\PSoC5/USBMIDI_midi.c ****                     /* In some OS OUT packet could be appended by nulls which could be skipped. */
 266:Generated_Source\PSoC5/USBMIDI_midi.c ****                     if (USBMIDI_midiOutBuffer[outPointer] == 0u)
 100              		.loc 1 266 0
 101 002a 094B     		ldr	r3, .L11+4
 102 002c 185D     		ldrb	r0, [r3, r4]	@ zero_extendqisi2
 103 002e 60B1     		cbz	r0, .L5
 267:Generated_Source\PSoC5/USBMIDI_midi.c ****                     {
 268:Generated_Source\PSoC5/USBMIDI_midi.c ****                         break;
 269:Generated_Source\PSoC5/USBMIDI_midi.c ****                     }
 270:Generated_Source\PSoC5/USBMIDI_midi.c **** 
 271:Generated_Source\PSoC5/USBMIDI_midi.c ****                 /* Route USB MIDI to the External connection */
 272:Generated_Source\PSoC5/USBMIDI_midi.c ****                 #if (USBMIDI_MIDI_EXT_MODE >= USBMIDI_ONE_EXT_INTRF)
 273:Generated_Source\PSoC5/USBMIDI_midi.c ****                     if ((USBMIDI_midiOutBuffer[outPointer] & USBMIDI_CABLE_MASK) ==
 274:Generated_Source\PSoC5/USBMIDI_midi.c ****                          USBMIDI_MIDI_CABLE_00)
 275:Generated_Source\PSoC5/USBMIDI_midi.c ****                     {
 276:Generated_Source\PSoC5/USBMIDI_midi.c ****                         USBMIDI_MIDI1_ProcessUsbOut(&USBMIDI_midiOutBuffer[outPointer]);
 277:Generated_Source\PSoC5/USBMIDI_midi.c ****                     }
 278:Generated_Source\PSoC5/USBMIDI_midi.c ****                     else if ((USBMIDI_midiOutBuffer[outPointer] & USBMIDI_CABLE_MASK) ==
 279:Generated_Source\PSoC5/USBMIDI_midi.c ****                              USBMIDI_MIDI_CABLE_01)
 280:Generated_Source\PSoC5/USBMIDI_midi.c ****                     {
 281:Generated_Source\PSoC5/USBMIDI_midi.c ****                     #if (USBMIDI_MIDI_EXT_MODE >= USBMIDI_TWO_EXT_INTRF)
 282:Generated_Source\PSoC5/USBMIDI_midi.c ****                          USBMIDI_MIDI2_ProcessUsbOut(&USBMIDI_midiOutBuffer[outPointer]);
 283:Generated_Source\PSoC5/USBMIDI_midi.c ****                     #endif /*  USBMIDI_MIDI_EXT_MODE >= USBMIDI_TWO_EXT_INTRF */
 284:Generated_Source\PSoC5/USBMIDI_midi.c ****                     }
 285:Generated_Source\PSoC5/USBMIDI_midi.c ****                     else
 286:Generated_Source\PSoC5/USBMIDI_midi.c ****                     {
 287:Generated_Source\PSoC5/USBMIDI_midi.c ****                         /* `#START CUSTOM_MIDI_OUT_EP_SERV` Place your code here */
 288:Generated_Source\PSoC5/USBMIDI_midi.c **** 
 289:Generated_Source\PSoC5/USBMIDI_midi.c ****                         /* `#END` */
 290:Generated_Source\PSoC5/USBMIDI_midi.c **** 
 291:Generated_Source\PSoC5/USBMIDI_midi.c ****                         #ifdef USBMIDI_MIDI_OUT_EP_SERVICE_CALLBACK
 292:Generated_Source\PSoC5/USBMIDI_midi.c ****                             USBMIDI_MIDI_OUT_EP_Service_Callback();
 293:Generated_Source\PSoC5/USBMIDI_midi.c ****                         #endif /* USBMIDI_MIDI_OUT_EP_SERVICE_CALLBACK */
 294:Generated_Source\PSoC5/USBMIDI_midi.c ****                     }
 295:Generated_Source\PSoC5/USBMIDI_midi.c ****                 #endif /* (USBMIDI_MIDI_EXT_MODE >= USBMIDI_ONE_EXT_INTRF) */
 296:Generated_Source\PSoC5/USBMIDI_midi.c **** 
ARM GAS  C:\Users\JEFFSN~1\AppData\Local\Temp\ccCLplwz.s 			page 8


 297:Generated_Source\PSoC5/USBMIDI_midi.c ****                     /* Process any local MIDI output functions */
 298:Generated_Source\PSoC5/USBMIDI_midi.c ****                     USBMIDI_callbackLocalMidiEvent(USBMIDI_midiOutBuffer[outPointer] & USBMIDI_CABL
 299:Generated_Source\PSoC5/USBMIDI_midi.c ****                                                             &USBMIDI_midiOutBuffer[outPointer + USB
 104              		.loc 1 299 0
 105 0030 631C     		adds	r3, r4, #1
 298:Generated_Source\PSoC5/USBMIDI_midi.c ****                                                             &USBMIDI_midiOutBuffer[outPointer + USB
 106              		.loc 1 298 0
 107 0032 0749     		ldr	r1, .L11+4
 108 0034 1944     		add	r1, r1, r3
 109 0036 00F0F000 		and	r0, r0, #240
 110 003a FFF7FEFF 		bl	USBMIDI_callbackLocalMidiEvent
 111              	.LVL7:
 300:Generated_Source\PSoC5/USBMIDI_midi.c ****                     outPointer += USBMIDI_EVENT_LENGTH;
 112              		.loc 1 300 0
 113 003e 0434     		adds	r4, r4, #4
 114              	.LVL8:
 115 0040 E4B2     		uxtb	r4, r4
 116              	.LVL9:
 117 0042 00E0     		b	.L7
 118              	.LVL10:
 119              	.L9:
 120 0044 0024     		movs	r4, #0
 121              	.L7:
 122              	.LVL11:
 263:Generated_Source\PSoC5/USBMIDI_midi.c ****                 {
 123              		.loc 1 263 0
 124 0046 AC42     		cmp	r4, r5
 125 0048 EFD3     		bcc	.L8
 126              	.LVL12:
 127              	.L5:
 128 004a 38BD     		pop	{r3, r4, r5, pc}
 129              	.L12:
 130              		.align	2
 131              	.L11:
 132 004c 00000000 		.word	USBMIDI_midi_out_ep
 133 0050 00000000 		.word	USBMIDI_midiOutBuffer
 134              		.cfi_endproc
 135              	.LFE1:
 136              		.size	USBMIDI_MIDI_OUT_Service, .-USBMIDI_MIDI_OUT_Service
 137              		.section	.text.USBMIDI_MIDI_IN_EP_Service,"ax",%progbits
 138              		.align	2
 139              		.global	USBMIDI_MIDI_IN_EP_Service
 140              		.thumb
 141              		.thumb_func
 142              		.type	USBMIDI_MIDI_IN_EP_Service, %function
 143              	USBMIDI_MIDI_IN_EP_Service:
 144              	.LFB2:
 301:Generated_Source\PSoC5/USBMIDI_midi.c ****                 }
 302:Generated_Source\PSoC5/USBMIDI_midi.c ****             }
 303:Generated_Source\PSoC5/USBMIDI_midi.c **** 
 304:Generated_Source\PSoC5/USBMIDI_midi.c ****         #if (USBMIDI_EP_MANAGEMENT_DMA_AUTO)
 305:Generated_Source\PSoC5/USBMIDI_midi.c ****             /* Enable OUT endpoint for communication */
 306:Generated_Source\PSoC5/USBMIDI_midi.c ****             USBMIDI_EnableOutEP(USBMIDI_midi_out_ep);
 307:Generated_Source\PSoC5/USBMIDI_midi.c ****         #endif  /* (USBMIDI_EP_MANAGEMENT_DMA_AUTO) */
 308:Generated_Source\PSoC5/USBMIDI_midi.c ****         }
 309:Generated_Source\PSoC5/USBMIDI_midi.c ****     }
 310:Generated_Source\PSoC5/USBMIDI_midi.c **** #endif /* (USBMIDI_MIDI_OUT_BUFF_SIZE > 0) */
ARM GAS  C:\Users\JEFFSN~1\AppData\Local\Temp\ccCLplwz.s 			page 9


 311:Generated_Source\PSoC5/USBMIDI_midi.c **** 
 312:Generated_Source\PSoC5/USBMIDI_midi.c **** 
 313:Generated_Source\PSoC5/USBMIDI_midi.c **** #if (USBMIDI_MIDI_IN_BUFF_SIZE > 0)
 314:Generated_Source\PSoC5/USBMIDI_midi.c ****     /*******************************************************************************
 315:Generated_Source\PSoC5/USBMIDI_midi.c ****     * Function Name: USBMIDI_MIDI_IN_EP_Service
 316:Generated_Source\PSoC5/USBMIDI_midi.c ****     ****************************************************************************//**
 317:Generated_Source\PSoC5/USBMIDI_midi.c ****     *
 318:Generated_Source\PSoC5/USBMIDI_midi.c ****     *  Services the USB MIDI IN endpoint. Non-blocking.
 319:Generated_Source\PSoC5/USBMIDI_midi.c ****     *  Checks that previous packet was processed by HOST, otherwise service the
 320:Generated_Source\PSoC5/USBMIDI_midi.c ****     *  input endpoint on the subsequent call. It is called from the
 321:Generated_Source\PSoC5/USBMIDI_midi.c ****     *  USBMIDI_MIDI_IN_Service() and from the
 322:Generated_Source\PSoC5/USBMIDI_midi.c ****     *  USBMIDI_PutUsbMidiIn() function.
 323:Generated_Source\PSoC5/USBMIDI_midi.c ****     *
 324:Generated_Source\PSoC5/USBMIDI_midi.c ****     * \globalvars
 325:Generated_Source\PSoC5/USBMIDI_midi.c ****     *  USBMIDI_midi_in_ep: Used as an IN endpoint number.
 326:Generated_Source\PSoC5/USBMIDI_midi.c ****     *  USBMIDI_midiInBuffer: Function loads the data from this buffer to
 327:Generated_Source\PSoC5/USBMIDI_midi.c ****     *    the USB IN endpoint.
 328:Generated_Source\PSoC5/USBMIDI_midi.c ****     *   USBMIDI_midiInPointer: Cleared to zero when data are sent.
 329:Generated_Source\PSoC5/USBMIDI_midi.c ****     *
 330:Generated_Source\PSoC5/USBMIDI_midi.c ****     * \reentrant
 331:Generated_Source\PSoC5/USBMIDI_midi.c ****     *  No
 332:Generated_Source\PSoC5/USBMIDI_midi.c ****     *
 333:Generated_Source\PSoC5/USBMIDI_midi.c ****     *******************************************************************************/
 334:Generated_Source\PSoC5/USBMIDI_midi.c ****     void USBMIDI_MIDI_IN_EP_Service(void) 
 335:Generated_Source\PSoC5/USBMIDI_midi.c ****     {
 145              		.loc 1 335 0
 146              		.cfi_startproc
 147              		@ args = 0, pretend = 0, frame = 0
 148              		@ frame_needed = 0, uses_anonymous_args = 0
 336:Generated_Source\PSoC5/USBMIDI_midi.c ****         /* Service the USB MIDI input endpoint */
 337:Generated_Source\PSoC5/USBMIDI_midi.c ****         /* Check that previous packet was processed by HOST, otherwise service the USB later */
 338:Generated_Source\PSoC5/USBMIDI_midi.c ****         if (USBMIDI_midiInPointer != 0u)
 149              		.loc 1 338 0
 150 0000 0B4B     		ldr	r3, .L17
 151 0002 1B78     		ldrb	r3, [r3]	@ zero_extendqisi2
 152 0004 13F0FF0F 		tst	r3, #255
 153 0008 10D0     		beq	.L16
 335:Generated_Source\PSoC5/USBMIDI_midi.c ****         /* Service the USB MIDI input endpoint */
 154              		.loc 1 335 0
 155 000a 10B5     		push	{r4, lr}
 156              		.cfi_def_cfa_offset 8
 157              		.cfi_offset 4, -8
 158              		.cfi_offset 14, -4
 339:Generated_Source\PSoC5/USBMIDI_midi.c ****         {
 340:Generated_Source\PSoC5/USBMIDI_midi.c ****             if(USBMIDI_GetEPState(USBMIDI_midi_in_ep) == USBMIDI_EVENT_PENDING)
 159              		.loc 1 340 0
 160 000c 094B     		ldr	r3, .L17+4
 161 000e 1878     		ldrb	r0, [r3]	@ zero_extendqisi2
 162 0010 FFF7FEFF 		bl	USBMIDI_GetEPState
 163              	.LVL13:
 164 0014 0128     		cmp	r0, #1
 165 0016 08D1     		bne	.L13
 341:Generated_Source\PSoC5/USBMIDI_midi.c ****             {
 342:Generated_Source\PSoC5/USBMIDI_midi.c ****             #if (USBMIDI_EP_MANAGEMENT_DMA_AUTO)
 343:Generated_Source\PSoC5/USBMIDI_midi.c ****                 USBMIDI_LoadInEP(USBMIDI_midi_in_ep, NULL, (uint16)USBMIDI_midiInPointer);
 344:Generated_Source\PSoC5/USBMIDI_midi.c ****             #else
 345:Generated_Source\PSoC5/USBMIDI_midi.c ****                 USBMIDI_LoadInEP(USBMIDI_midi_in_ep, USBMIDI_midiInBuffer,
ARM GAS  C:\Users\JEFFSN~1\AppData\Local\Temp\ccCLplwz.s 			page 10


 166              		.loc 1 345 0
 167 0018 064B     		ldr	r3, .L17+4
 168 001a 1878     		ldrb	r0, [r3]	@ zero_extendqisi2
 169 001c 044C     		ldr	r4, .L17
 170 001e 2278     		ldrb	r2, [r4]	@ zero_extendqisi2
 171 0020 0549     		ldr	r1, .L17+8
 172 0022 FFF7FEFF 		bl	USBMIDI_LoadInEP
 173              	.LVL14:
 346:Generated_Source\PSoC5/USBMIDI_midi.c ****                                                               (uint16) USBMIDI_midiInPointer);
 347:Generated_Source\PSoC5/USBMIDI_midi.c ****             #endif /* (USBMIDI_EP_MANAGEMENT_DMA_AUTO) */
 348:Generated_Source\PSoC5/USBMIDI_midi.c **** 
 349:Generated_Source\PSoC5/USBMIDI_midi.c ****             /* Clear the midiInPointer. For DMA mode, clear this pointer in the ARB ISR when data a
 350:Generated_Source\PSoC5/USBMIDI_midi.c ****             #if (USBMIDI_EP_MANAGEMENT_MANUAL)
 351:Generated_Source\PSoC5/USBMIDI_midi.c ****                 USBMIDI_midiInPointer = 0u;
 174              		.loc 1 351 0
 175 0026 0023     		movs	r3, #0
 176 0028 2370     		strb	r3, [r4]
 177              	.L13:
 178 002a 10BD     		pop	{r4, pc}
 179              	.L16:
 180              		.cfi_def_cfa_offset 0
 181              		.cfi_restore 4
 182              		.cfi_restore 14
 183 002c 7047     		bx	lr
 184              	.L18:
 185 002e 00BF     		.align	2
 186              	.L17:
 187 0030 00000000 		.word	USBMIDI_midiInPointer
 188 0034 00000000 		.word	USBMIDI_midi_in_ep
 189 0038 00000000 		.word	USBMIDI_midiInBuffer
 190              		.cfi_endproc
 191              	.LFE2:
 192              		.size	USBMIDI_MIDI_IN_EP_Service, .-USBMIDI_MIDI_IN_EP_Service
 193              		.section	.text.USBMIDI_MIDI_IN_Service,"ax",%progbits
 194              		.align	2
 195              		.global	USBMIDI_MIDI_IN_Service
 196              		.thumb
 197              		.thumb_func
 198              		.type	USBMIDI_MIDI_IN_Service, %function
 199              	USBMIDI_MIDI_IN_Service:
 200              	.LFB3:
 352:Generated_Source\PSoC5/USBMIDI_midi.c ****             #endif /* (USBMIDI_EP_MANAGEMENT_MANUAL) */
 353:Generated_Source\PSoC5/USBMIDI_midi.c ****             }
 354:Generated_Source\PSoC5/USBMIDI_midi.c ****         }
 355:Generated_Source\PSoC5/USBMIDI_midi.c ****     }
 356:Generated_Source\PSoC5/USBMIDI_midi.c **** 
 357:Generated_Source\PSoC5/USBMIDI_midi.c **** 
 358:Generated_Source\PSoC5/USBMIDI_midi.c ****     /*******************************************************************************
 359:Generated_Source\PSoC5/USBMIDI_midi.c ****     * Function Name: USBMIDI_MIDI_IN_Service
 360:Generated_Source\PSoC5/USBMIDI_midi.c ****     ****************************************************************************//**
 361:Generated_Source\PSoC5/USBMIDI_midi.c ****     *
 362:Generated_Source\PSoC5/USBMIDI_midi.c ****     *  This function services the traffic from the MIDI input ports (RX UART)
 363:Generated_Source\PSoC5/USBMIDI_midi.c ****     *  and prepare data in USB MIDI IN endpoint buffer.
 364:Generated_Source\PSoC5/USBMIDI_midi.c ****     *  Calls the USBMIDI_MIDI_IN_EP_Service() function to sent the
 365:Generated_Source\PSoC5/USBMIDI_midi.c ****     *  data from buffer to PC. Non-blocking. Should be called from main foreground
 366:Generated_Source\PSoC5/USBMIDI_midi.c ****     *  task.
 367:Generated_Source\PSoC5/USBMIDI_midi.c ****     *  This function is not protected from the reentrant calls. When it is required
ARM GAS  C:\Users\JEFFSN~1\AppData\Local\Temp\ccCLplwz.s 			page 11


 368:Generated_Source\PSoC5/USBMIDI_midi.c ****     *  to use this function in UART RX ISR to guaranty low latency, care should be
 369:Generated_Source\PSoC5/USBMIDI_midi.c ****     *  taken to protect from reentrant calls.
 370:Generated_Source\PSoC5/USBMIDI_midi.c ****     *  In PSoC 3, if this function is called from an ISR, you must declare this
 371:Generated_Source\PSoC5/USBMIDI_midi.c ****     *  function as re-entrant so that different variable storage space is
 372:Generated_Source\PSoC5/USBMIDI_midi.c ****     *  created by the compiler. This is automatically taken care for PSoC 4 and
 373:Generated_Source\PSoC5/USBMIDI_midi.c ****     *  PSoC 5LP devices by the compiler.
 374:Generated_Source\PSoC5/USBMIDI_midi.c ****     *
 375:Generated_Source\PSoC5/USBMIDI_midi.c ****     * \globalvars
 376:Generated_Source\PSoC5/USBMIDI_midi.c ****     *
 377:Generated_Source\PSoC5/USBMIDI_midi.c ****     *   USBMIDI_midiInPointer: Cleared to zero when data are sent.
 378:Generated_Source\PSoC5/USBMIDI_midi.c ****     *
 379:Generated_Source\PSoC5/USBMIDI_midi.c ****     * \reentrant
 380:Generated_Source\PSoC5/USBMIDI_midi.c ****     *  No
 381:Generated_Source\PSoC5/USBMIDI_midi.c ****     *
 382:Generated_Source\PSoC5/USBMIDI_midi.c ****     *******************************************************************************/
 383:Generated_Source\PSoC5/USBMIDI_midi.c ****     void USBMIDI_MIDI_IN_Service(void) 
 384:Generated_Source\PSoC5/USBMIDI_midi.c ****     {
 201              		.loc 1 384 0
 202              		.cfi_startproc
 203              		@ args = 0, pretend = 0, frame = 0
 204              		@ frame_needed = 0, uses_anonymous_args = 0
 205 0000 08B5     		push	{r3, lr}
 206              		.cfi_def_cfa_offset 8
 207              		.cfi_offset 3, -8
 208              		.cfi_offset 14, -4
 385:Generated_Source\PSoC5/USBMIDI_midi.c ****         /* Service the MIDI UART inputs until either both receivers have no more
 386:Generated_Source\PSoC5/USBMIDI_midi.c ****         *  events or until the input endpoint buffer fills up.
 387:Generated_Source\PSoC5/USBMIDI_midi.c ****         */
 388:Generated_Source\PSoC5/USBMIDI_midi.c ****     #if (USBMIDI_MIDI_EXT_MODE >= USBMIDI_ONE_EXT_INTRF)
 389:Generated_Source\PSoC5/USBMIDI_midi.c ****             uint8 m1 = 0u;
 390:Generated_Source\PSoC5/USBMIDI_midi.c ****             uint8 m2 = 0u;
 391:Generated_Source\PSoC5/USBMIDI_midi.c **** 
 392:Generated_Source\PSoC5/USBMIDI_midi.c ****         if (0u == USBMIDI_midiInPointer)
 393:Generated_Source\PSoC5/USBMIDI_midi.c ****         {
 394:Generated_Source\PSoC5/USBMIDI_midi.c ****             do
 395:Generated_Source\PSoC5/USBMIDI_midi.c ****             {
 396:Generated_Source\PSoC5/USBMIDI_midi.c ****                 if (USBMIDI_midiInPointer <= (USBMIDI_MIDI_IN_BUFF_SIZE - USBMIDI_EVENT_LENGTH))
 397:Generated_Source\PSoC5/USBMIDI_midi.c ****                 {
 398:Generated_Source\PSoC5/USBMIDI_midi.c ****                     /* Check MIDI1 input port for a complete event */
 399:Generated_Source\PSoC5/USBMIDI_midi.c ****                     m1 = USBMIDI_MIDI1_GetEvent();
 400:Generated_Source\PSoC5/USBMIDI_midi.c ****                     if (m1 != 0u)
 401:Generated_Source\PSoC5/USBMIDI_midi.c ****                     {
 402:Generated_Source\PSoC5/USBMIDI_midi.c ****                         USBMIDI_PrepareInBuffer(m1, (uint8 *)&USBMIDI_MIDI1_Event.msgBuff[0],
 403:Generated_Source\PSoC5/USBMIDI_midi.c ****                                                                        USBMIDI_MIDI1_Event.size, US
 404:Generated_Source\PSoC5/USBMIDI_midi.c ****                     }
 405:Generated_Source\PSoC5/USBMIDI_midi.c ****                 }
 406:Generated_Source\PSoC5/USBMIDI_midi.c **** 
 407:Generated_Source\PSoC5/USBMIDI_midi.c ****             #if (USBMIDI_MIDI_EXT_MODE >= USBMIDI_TWO_EXT_INTRF)
 408:Generated_Source\PSoC5/USBMIDI_midi.c ****                 if (USBMIDI_midiInPointer <= (USBMIDI_MIDI_IN_BUFF_SIZE - USBMIDI_EVENT_LENGTH))
 409:Generated_Source\PSoC5/USBMIDI_midi.c ****                 {
 410:Generated_Source\PSoC5/USBMIDI_midi.c ****                     /* Check MIDI2 input port for a complete event */
 411:Generated_Source\PSoC5/USBMIDI_midi.c ****                     m2 = USBMIDI_MIDI2_GetEvent();
 412:Generated_Source\PSoC5/USBMIDI_midi.c ****                     if (m2 != 0u)
 413:Generated_Source\PSoC5/USBMIDI_midi.c ****                     {
 414:Generated_Source\PSoC5/USBMIDI_midi.c ****                         USBMIDI_PrepareInBuffer(m2, (uint8 *)&USBMIDI_MIDI2_Event.msgBuff[0],
 415:Generated_Source\PSoC5/USBMIDI_midi.c ****                                                                        USBMIDI_MIDI2_Event.size, US
 416:Generated_Source\PSoC5/USBMIDI_midi.c ****                     }
ARM GAS  C:\Users\JEFFSN~1\AppData\Local\Temp\ccCLplwz.s 			page 12


 417:Generated_Source\PSoC5/USBMIDI_midi.c ****                 }
 418:Generated_Source\PSoC5/USBMIDI_midi.c ****             #endif /*  USBMIDI_MIDI_EXT_MODE >= USBMIDI_TWO_EXT_INTRF */
 419:Generated_Source\PSoC5/USBMIDI_midi.c ****             }
 420:Generated_Source\PSoC5/USBMIDI_midi.c ****             while((USBMIDI_midiInPointer <= (USBMIDI_MIDI_IN_BUFF_SIZE - USBMIDI_EVENT_LENGTH)) &&
 421:Generated_Source\PSoC5/USBMIDI_midi.c ****                   ((m1 != 0u) || (m2 != 0u)));
 422:Generated_Source\PSoC5/USBMIDI_midi.c ****         }
 423:Generated_Source\PSoC5/USBMIDI_midi.c ****     #endif /* (USBMIDI_MIDI_EXT_MODE >= USBMIDI_ONE_EXT_INTRF) */
 424:Generated_Source\PSoC5/USBMIDI_midi.c **** 
 425:Generated_Source\PSoC5/USBMIDI_midi.c ****         /* Service the USB MIDI input endpoint */
 426:Generated_Source\PSoC5/USBMIDI_midi.c ****         USBMIDI_MIDI_IN_EP_Service();
 209              		.loc 1 426 0
 210 0002 FFF7FEFF 		bl	USBMIDI_MIDI_IN_EP_Service
 211              	.LVL15:
 212 0006 08BD     		pop	{r3, pc}
 213              		.cfi_endproc
 214              	.LFE3:
 215              		.size	USBMIDI_MIDI_IN_Service, .-USBMIDI_MIDI_IN_Service
 216              		.section	.text.USBMIDI_PrepareInBuffer,"ax",%progbits
 217              		.align	2
 218              		.global	USBMIDI_PrepareInBuffer
 219              		.thumb
 220              		.thumb_func
 221              		.type	USBMIDI_PrepareInBuffer, %function
 222              	USBMIDI_PrepareInBuffer:
 223              	.LFB5:
 427:Generated_Source\PSoC5/USBMIDI_midi.c ****     }
 428:Generated_Source\PSoC5/USBMIDI_midi.c **** 
 429:Generated_Source\PSoC5/USBMIDI_midi.c **** 
 430:Generated_Source\PSoC5/USBMIDI_midi.c ****     /***************************************************************************
 431:Generated_Source\PSoC5/USBMIDI_midi.c ****     * Function Name: USBMIDI_PutUsbMidiIn
 432:Generated_Source\PSoC5/USBMIDI_midi.c ****     ************************************************************************//**
 433:Generated_Source\PSoC5/USBMIDI_midi.c ****     *
 434:Generated_Source\PSoC5/USBMIDI_midi.c ****     *  This function puts one MIDI message into the USB MIDI In endpoint buffer.
 435:Generated_Source\PSoC5/USBMIDI_midi.c ****     *  This is a MIDI input message to the host. This function is used only if
 436:Generated_Source\PSoC5/USBMIDI_midi.c ****     *  the device has internal MIDI input functionality.
 437:Generated_Source\PSoC5/USBMIDI_midi.c ****     *  The USBMIDI_MIDI_IN_Service() function should also be called to
 438:Generated_Source\PSoC5/USBMIDI_midi.c ****     *  send the message from local buffer to the IN endpoint.
 439:Generated_Source\PSoC5/USBMIDI_midi.c ****     *
 440:Generated_Source\PSoC5/USBMIDI_midi.c ****     *  \param ic: The length of the MIDI message or command is described on the
 441:Generated_Source\PSoC5/USBMIDI_midi.c ****     *  following table.
 442:Generated_Source\PSoC5/USBMIDI_midi.c ****     *  Value          | Description
 443:Generated_Source\PSoC5/USBMIDI_midi.c ****     *  ---------------|---------------------------------------------------------
 444:Generated_Source\PSoC5/USBMIDI_midi.c ****     *  0              | No message (should never happen)
 445:Generated_Source\PSoC5/USBMIDI_midi.c ****     *  1 - 3          | Complete MIDI message in midiMsg
 446:Generated_Source\PSoC5/USBMIDI_midi.c ****     *  3 IN EP LENGTH | Complete SySEx message(without EOSEX byte) in midiMsg. The length is limite
 447:Generated_Source\PSoC5/USBMIDI_midi.c ****     *  MIDI_SYSEX     | Start or continuation of SysEx message (put event bytes in midiMsg buffer)
 448:Generated_Source\PSoC5/USBMIDI_midi.c ****     *  MIDI_EOSEX     | End of SysEx message (put event bytes in midiMsg buffer)
 449:Generated_Source\PSoC5/USBMIDI_midi.c ****     *  MIDI_TUNEREQ   | Tune Request message (single byte system common message)
 450:Generated_Source\PSoC5/USBMIDI_midi.c ****     *  0xF8 - 0xFF    | Single byte real-time message
 451:Generated_Source\PSoC5/USBMIDI_midi.c ****     *
 452:Generated_Source\PSoC5/USBMIDI_midi.c ****     *  \param midiMsg: pointer to MIDI message.
 453:Generated_Source\PSoC5/USBMIDI_midi.c ****     *  \param cable:   cable number.
 454:Generated_Source\PSoC5/USBMIDI_midi.c ****     *
 455:Generated_Source\PSoC5/USBMIDI_midi.c ****     * \return
 456:Generated_Source\PSoC5/USBMIDI_midi.c ****     *   Return Value          | Description
 457:Generated_Source\PSoC5/USBMIDI_midi.c ****     *   ----------------------|-----------------------------------------
 458:Generated_Source\PSoC5/USBMIDI_midi.c ****     *  USBMIDI_TRUE  | Host is not ready to receive this message
ARM GAS  C:\Users\JEFFSN~1\AppData\Local\Temp\ccCLplwz.s 			page 13


 459:Generated_Source\PSoC5/USBMIDI_midi.c ****     *  USBMIDI_FALSE | Success transfer
 460:Generated_Source\PSoC5/USBMIDI_midi.c ****     *
 461:Generated_Source\PSoC5/USBMIDI_midi.c ****     * \globalvars
 462:Generated_Source\PSoC5/USBMIDI_midi.c ****     *
 463:Generated_Source\PSoC5/USBMIDI_midi.c ****     *  \ref USBMIDI_midi_in_ep: MIDI IN endpoint number used for
 464:Generated_Source\PSoC5/USBMIDI_midi.c ****     *        sending data.
 465:Generated_Source\PSoC5/USBMIDI_midi.c ****     *
 466:Generated_Source\PSoC5/USBMIDI_midi.c ****     *  \ref USBMIDI_midiInPointer: Checked this variable to see if
 467:Generated_Source\PSoC5/USBMIDI_midi.c ****     *        there is enough free space in the IN endpoint buffer. If buffer is
 468:Generated_Source\PSoC5/USBMIDI_midi.c ****     *        full, initiate sending to PC.
 469:Generated_Source\PSoC5/USBMIDI_midi.c ****     *
 470:Generated_Source\PSoC5/USBMIDI_midi.c ****     * \reentrant
 471:Generated_Source\PSoC5/USBMIDI_midi.c ****     *  No
 472:Generated_Source\PSoC5/USBMIDI_midi.c ****     *
 473:Generated_Source\PSoC5/USBMIDI_midi.c ****     ***************************************************************************/
 474:Generated_Source\PSoC5/USBMIDI_midi.c ****     uint8 USBMIDI_PutUsbMidiIn(uint8 ic, const uint8 midiMsg[], uint8 cable)
 475:Generated_Source\PSoC5/USBMIDI_midi.c ****                                                                 
 476:Generated_Source\PSoC5/USBMIDI_midi.c ****     {
 477:Generated_Source\PSoC5/USBMIDI_midi.c ****         uint8 retError = USBMIDI_FALSE;
 478:Generated_Source\PSoC5/USBMIDI_midi.c **** 
 479:Generated_Source\PSoC5/USBMIDI_midi.c ****         /* Protect PrepareInBuffer() function from concurrent calls */
 480:Generated_Source\PSoC5/USBMIDI_midi.c ****     #if (USBMIDI_MIDI_EXT_MODE >= USBMIDI_ONE_EXT_INTRF)
 481:Generated_Source\PSoC5/USBMIDI_midi.c ****         MIDI1_UART_DisableRxInt();
 482:Generated_Source\PSoC5/USBMIDI_midi.c ****         #if (USBMIDI_MIDI_EXT_MODE >= USBMIDI_TWO_EXT_INTRF)
 483:Generated_Source\PSoC5/USBMIDI_midi.c ****             MIDI2_UART_DisableRxInt();
 484:Generated_Source\PSoC5/USBMIDI_midi.c ****         #endif /* (USBMIDI_MIDI_EXT_MODE >= USBMIDI_TWO_EXT_INTRF) */
 485:Generated_Source\PSoC5/USBMIDI_midi.c ****     #endif /* (USBMIDI_MIDI_EXT_MODE >= USBMIDI_ONE_EXT_INTRF) */
 486:Generated_Source\PSoC5/USBMIDI_midi.c **** 
 487:Generated_Source\PSoC5/USBMIDI_midi.c ****         if (USBMIDI_midiInPointer >
 488:Generated_Source\PSoC5/USBMIDI_midi.c ****                     (USBMIDI_EP[USBMIDI_midi_in_ep].bufferSize - USBMIDI_EVENT_LENGTH))
 489:Generated_Source\PSoC5/USBMIDI_midi.c ****         {
 490:Generated_Source\PSoC5/USBMIDI_midi.c ****             USBMIDI_MIDI_IN_EP_Service();
 491:Generated_Source\PSoC5/USBMIDI_midi.c ****         }
 492:Generated_Source\PSoC5/USBMIDI_midi.c **** 
 493:Generated_Source\PSoC5/USBMIDI_midi.c ****         if (USBMIDI_midiInPointer <=
 494:Generated_Source\PSoC5/USBMIDI_midi.c ****                     (USBMIDI_EP[USBMIDI_midi_in_ep].bufferSize - USBMIDI_EVENT_LENGTH))
 495:Generated_Source\PSoC5/USBMIDI_midi.c ****         {
 496:Generated_Source\PSoC5/USBMIDI_midi.c ****             if((ic < USBMIDI_EVENT_LENGTH) || (ic >= USBMIDI_MIDI_STATUS_MASK))
 497:Generated_Source\PSoC5/USBMIDI_midi.c ****             {
 498:Generated_Source\PSoC5/USBMIDI_midi.c ****                 USBMIDI_PrepareInBuffer(ic, midiMsg, ic, cable);
 499:Generated_Source\PSoC5/USBMIDI_midi.c ****             }
 500:Generated_Source\PSoC5/USBMIDI_midi.c ****             else /* Only SysEx message is greater than 4 bytes */
 501:Generated_Source\PSoC5/USBMIDI_midi.c ****             {
 502:Generated_Source\PSoC5/USBMIDI_midi.c ****                 /* Convert SysEx message into midi message format */
 503:Generated_Source\PSoC5/USBMIDI_midi.c ****                 uint8 idx = 0u;
 504:Generated_Source\PSoC5/USBMIDI_midi.c ****                 do
 505:Generated_Source\PSoC5/USBMIDI_midi.c ****                 {
 506:Generated_Source\PSoC5/USBMIDI_midi.c ****                     /* Process 3 bytes of message until 0-2 bytes are left. These bytes are handled
 507:Generated_Source\PSoC5/USBMIDI_midi.c ****                     USBMIDI_PrepareInBuffer(USBMIDI_MIDI_SYSEX, &midiMsg[idx],
 508:Generated_Source\PSoC5/USBMIDI_midi.c ****                                                      USBMIDI_EVENT_BYTE3, cable);
 509:Generated_Source\PSoC5/USBMIDI_midi.c **** 
 510:Generated_Source\PSoC5/USBMIDI_midi.c ****                     /* Move to next 3 bytes of message */
 511:Generated_Source\PSoC5/USBMIDI_midi.c ****                     ic  -= USBMIDI_EVENT_BYTE3;
 512:Generated_Source\PSoC5/USBMIDI_midi.c ****                     idx += USBMIDI_EVENT_BYTE3;
 513:Generated_Source\PSoC5/USBMIDI_midi.c **** 
 514:Generated_Source\PSoC5/USBMIDI_midi.c ****                     if (USBMIDI_midiInPointer >
 515:Generated_Source\PSoC5/USBMIDI_midi.c ****                         (USBMIDI_EP[USBMIDI_midi_in_ep].bufferSize - USBMIDI_EVENT_LENGTH))
ARM GAS  C:\Users\JEFFSN~1\AppData\Local\Temp\ccCLplwz.s 			page 14


 516:Generated_Source\PSoC5/USBMIDI_midi.c ****                     {
 517:Generated_Source\PSoC5/USBMIDI_midi.c ****                         /* Load message into endpoint */
 518:Generated_Source\PSoC5/USBMIDI_midi.c ****                         USBMIDI_MIDI_IN_EP_Service();
 519:Generated_Source\PSoC5/USBMIDI_midi.c **** 
 520:Generated_Source\PSoC5/USBMIDI_midi.c ****                         if (USBMIDI_midiInPointer >
 521:Generated_Source\PSoC5/USBMIDI_midi.c ****                            (USBMIDI_EP[USBMIDI_midi_in_ep].bufferSize - USBMIDI_EVENT_LENGTH))
 522:Generated_Source\PSoC5/USBMIDI_midi.c ****                         {
 523:Generated_Source\PSoC5/USBMIDI_midi.c ****                             /* Error condition. Host is not ready to receive this packet. */
 524:Generated_Source\PSoC5/USBMIDI_midi.c ****                             retError = USBMIDI_TRUE;
 525:Generated_Source\PSoC5/USBMIDI_midi.c ****                             break;
 526:Generated_Source\PSoC5/USBMIDI_midi.c ****                         }
 527:Generated_Source\PSoC5/USBMIDI_midi.c ****                     }
 528:Generated_Source\PSoC5/USBMIDI_midi.c ****                 }
 529:Generated_Source\PSoC5/USBMIDI_midi.c ****                 while (ic >= USBMIDI_EVENT_BYTE3);
 530:Generated_Source\PSoC5/USBMIDI_midi.c **** 
 531:Generated_Source\PSoC5/USBMIDI_midi.c ****                 if (retError == USBMIDI_FALSE)
 532:Generated_Source\PSoC5/USBMIDI_midi.c ****                 {
 533:Generated_Source\PSoC5/USBMIDI_midi.c ****                     /* Handle end of message: valid size of messages is 0, 1 and 2 */
 534:Generated_Source\PSoC5/USBMIDI_midi.c ****                     USBMIDI_PrepareInBuffer(USBMIDI_MIDI_EOSEX, &midiMsg[idx], ic, cable);
 535:Generated_Source\PSoC5/USBMIDI_midi.c ****                 }
 536:Generated_Source\PSoC5/USBMIDI_midi.c ****             }
 537:Generated_Source\PSoC5/USBMIDI_midi.c ****         }
 538:Generated_Source\PSoC5/USBMIDI_midi.c ****         else
 539:Generated_Source\PSoC5/USBMIDI_midi.c ****         {
 540:Generated_Source\PSoC5/USBMIDI_midi.c ****             /* Error condition. Host is not ready to receive this packet. */
 541:Generated_Source\PSoC5/USBMIDI_midi.c ****             retError = USBMIDI_TRUE;
 542:Generated_Source\PSoC5/USBMIDI_midi.c ****         }
 543:Generated_Source\PSoC5/USBMIDI_midi.c **** 
 544:Generated_Source\PSoC5/USBMIDI_midi.c ****     #if (USBMIDI_MIDI_EXT_MODE >= USBMIDI_ONE_EXT_INTRF)
 545:Generated_Source\PSoC5/USBMIDI_midi.c ****         MIDI1_UART_EnableRxInt();
 546:Generated_Source\PSoC5/USBMIDI_midi.c ****         #if (USBMIDI_MIDI_EXT_MODE >= USBMIDI_TWO_EXT_INTRF)
 547:Generated_Source\PSoC5/USBMIDI_midi.c ****             MIDI2_UART_EnableRxInt();
 548:Generated_Source\PSoC5/USBMIDI_midi.c ****         #endif /* (USBMIDI_MIDI_EXT_MODE >= USBMIDI_TWO_EXT_INTRF) */
 549:Generated_Source\PSoC5/USBMIDI_midi.c ****     #endif /* (USBMIDI_MIDI_EXT_MODE >= USBMIDI_ONE_EXT_INTRF) */
 550:Generated_Source\PSoC5/USBMIDI_midi.c **** 
 551:Generated_Source\PSoC5/USBMIDI_midi.c ****         return (retError);
 552:Generated_Source\PSoC5/USBMIDI_midi.c ****     }
 553:Generated_Source\PSoC5/USBMIDI_midi.c **** 
 554:Generated_Source\PSoC5/USBMIDI_midi.c **** 
 555:Generated_Source\PSoC5/USBMIDI_midi.c ****     /*******************************************************************************
 556:Generated_Source\PSoC5/USBMIDI_midi.c ****     * Function Name: USBMIDI_PrepareInBuffer
 557:Generated_Source\PSoC5/USBMIDI_midi.c ****     ****************************************************************************//**
 558:Generated_Source\PSoC5/USBMIDI_midi.c ****     *
 559:Generated_Source\PSoC5/USBMIDI_midi.c ****     *  Builds a USB MIDI event in the input endpoint buffer at the current pointer.
 560:Generated_Source\PSoC5/USBMIDI_midi.c ****     *  Puts one MIDI message into the USB MIDI In endpoint buffer.
 561:Generated_Source\PSoC5/USBMIDI_midi.c ****     *
 562:Generated_Source\PSoC5/USBMIDI_midi.c ****     *  \param ic:   0 = No message (should never happen)
 563:Generated_Source\PSoC5/USBMIDI_midi.c ****     *        1 - 3 = Complete MIDI message at pMdat[0]
 564:Generated_Source\PSoC5/USBMIDI_midi.c ****     *        MIDI_SYSEX = Start or continuation of SysEx message
 565:Generated_Source\PSoC5/USBMIDI_midi.c ****     *                     (put eventLen bytes in buffer)
 566:Generated_Source\PSoC5/USBMIDI_midi.c ****     *        MIDI_EOSEX = End of SysEx message
 567:Generated_Source\PSoC5/USBMIDI_midi.c ****     *                     (put eventLen bytes in buffer,
 568:Generated_Source\PSoC5/USBMIDI_midi.c ****     *                      and append MIDI_EOSEX)
 569:Generated_Source\PSoC5/USBMIDI_midi.c ****     *        MIDI_TUNEREQ = Tune Request message (single byte system common msg)
 570:Generated_Source\PSoC5/USBMIDI_midi.c ****     *        0xf8 - 0xff = Single byte real-time message
 571:Generated_Source\PSoC5/USBMIDI_midi.c ****     *
 572:Generated_Source\PSoC5/USBMIDI_midi.c ****     *  \param srcBuff: pointer to MIDI data
ARM GAS  C:\Users\JEFFSN~1\AppData\Local\Temp\ccCLplwz.s 			page 15


 573:Generated_Source\PSoC5/USBMIDI_midi.c ****     *  \param eventLen: number of bytes in MIDI event
 574:Generated_Source\PSoC5/USBMIDI_midi.c ****     *  \param cable: MIDI source port number
 575:Generated_Source\PSoC5/USBMIDI_midi.c ****     *
 576:Generated_Source\PSoC5/USBMIDI_midi.c ****     * \globalvars
 577:Generated_Source\PSoC5/USBMIDI_midi.c ****     *  USBMIDI_midiInBuffer: This buffer is used for saving and combine the
 578:Generated_Source\PSoC5/USBMIDI_midi.c ****     *    received from UART(s) and(or) generated internally by
 579:Generated_Source\PSoC5/USBMIDI_midi.c ****     *    USBMIDI_PutUsbMidiIn() function messages.
 580:Generated_Source\PSoC5/USBMIDI_midi.c ****     *  USBMIDI_midiInPointer: Used as an index for midiInBuffer to
 581:Generated_Source\PSoC5/USBMIDI_midi.c ****     *     write data.
 582:Generated_Source\PSoC5/USBMIDI_midi.c ****     *
 583:Generated_Source\PSoC5/USBMIDI_midi.c ****     * \reentrant
 584:Generated_Source\PSoC5/USBMIDI_midi.c ****     *  No
 585:Generated_Source\PSoC5/USBMIDI_midi.c ****     *
 586:Generated_Source\PSoC5/USBMIDI_midi.c ****     *******************************************************************************/
 587:Generated_Source\PSoC5/USBMIDI_midi.c ****     void USBMIDI_PrepareInBuffer(uint8 ic, const uint8 srcBuff[], uint8 eventLen, uint8 cable)
 588:Generated_Source\PSoC5/USBMIDI_midi.c ****                                                                  
 589:Generated_Source\PSoC5/USBMIDI_midi.c ****     {
 224              		.loc 1 589 0
 225              		.cfi_startproc
 226              		@ args = 0, pretend = 0, frame = 0
 227              		@ frame_needed = 0, uses_anonymous_args = 0
 228              		@ link register save eliminated.
 229              	.LVL16:
 230 0000 70B4     		push	{r4, r5, r6}
 231              		.cfi_def_cfa_offset 12
 232              		.cfi_offset 4, -12
 233              		.cfi_offset 5, -8
 234              		.cfi_offset 6, -4
 590:Generated_Source\PSoC5/USBMIDI_midi.c ****         uint8 srcBuffZero;
 591:Generated_Source\PSoC5/USBMIDI_midi.c ****         uint8 srcBuffOne;
 592:Generated_Source\PSoC5/USBMIDI_midi.c **** 
 593:Generated_Source\PSoC5/USBMIDI_midi.c ****         srcBuffZero = srcBuff[0u];
 235              		.loc 1 593 0
 236 0002 0D78     		ldrb	r5, [r1]	@ zero_extendqisi2
 237              	.LVL17:
 594:Generated_Source\PSoC5/USBMIDI_midi.c ****         srcBuffOne  = srcBuff[1u];
 238              		.loc 1 594 0
 239 0004 4C78     		ldrb	r4, [r1, #1]	@ zero_extendqisi2
 240              	.LVL18:
 595:Generated_Source\PSoC5/USBMIDI_midi.c **** 
 596:Generated_Source\PSoC5/USBMIDI_midi.c ****         if (ic >= (USBMIDI_MIDI_STATUS_MASK | USBMIDI_MIDI_SINGLE_BYTE_MASK))
 241              		.loc 1 596 0
 242 0006 F728     		cmp	r0, #247
 243 0008 21D9     		bls	.L22
 597:Generated_Source\PSoC5/USBMIDI_midi.c ****         {
 598:Generated_Source\PSoC5/USBMIDI_midi.c ****             USBMIDI_midiInBuffer[USBMIDI_midiInPointer] = USBMIDI_SINGLE_BYTE | cable;
 244              		.loc 1 598 0
 245 000a 7B4A     		ldr	r2, .L36
 246              	.LVL19:
 247 000c 1478     		ldrb	r4, [r2]	@ zero_extendqisi2
 248              	.LVL20:
 249 000e E4B2     		uxtb	r4, r4
 250 0010 7A49     		ldr	r1, .L36+4
 251              	.LVL21:
 252 0012 43F00F03 		orr	r3, r3, #15
 253              	.LVL22:
 254 0016 0B55     		strb	r3, [r1, r4]
ARM GAS  C:\Users\JEFFSN~1\AppData\Local\Temp\ccCLplwz.s 			page 16


 255              	.LVL23:
 599:Generated_Source\PSoC5/USBMIDI_midi.c ****             USBMIDI_midiInPointer++;
 256              		.loc 1 599 0
 257 0018 1378     		ldrb	r3, [r2]	@ zero_extendqisi2
 258 001a 0133     		adds	r3, r3, #1
 259 001c DBB2     		uxtb	r3, r3
 260 001e 1370     		strb	r3, [r2]
 600:Generated_Source\PSoC5/USBMIDI_midi.c ****             USBMIDI_midiInBuffer[USBMIDI_midiInPointer] = ic;
 261              		.loc 1 600 0
 262 0020 1378     		ldrb	r3, [r2]	@ zero_extendqisi2
 263 0022 DBB2     		uxtb	r3, r3
 264 0024 C854     		strb	r0, [r1, r3]
 601:Generated_Source\PSoC5/USBMIDI_midi.c ****             USBMIDI_midiInPointer++;
 265              		.loc 1 601 0
 266 0026 1378     		ldrb	r3, [r2]	@ zero_extendqisi2
 267 0028 0133     		adds	r3, r3, #1
 268 002a DBB2     		uxtb	r3, r3
 269 002c 1370     		strb	r3, [r2]
 602:Generated_Source\PSoC5/USBMIDI_midi.c ****             USBMIDI_midiInBuffer[USBMIDI_midiInPointer] = 0u;
 270              		.loc 1 602 0
 271 002e 1378     		ldrb	r3, [r2]	@ zero_extendqisi2
 272 0030 DBB2     		uxtb	r3, r3
 273 0032 0020     		movs	r0, #0
 274              	.LVL24:
 275 0034 C854     		strb	r0, [r1, r3]
 603:Generated_Source\PSoC5/USBMIDI_midi.c ****             USBMIDI_midiInPointer++;
 276              		.loc 1 603 0
 277 0036 1378     		ldrb	r3, [r2]	@ zero_extendqisi2
 278 0038 0133     		adds	r3, r3, #1
 279 003a DBB2     		uxtb	r3, r3
 280 003c 1370     		strb	r3, [r2]
 604:Generated_Source\PSoC5/USBMIDI_midi.c ****             USBMIDI_midiInBuffer[USBMIDI_midiInPointer] = 0u;
 281              		.loc 1 604 0
 282 003e 1378     		ldrb	r3, [r2]	@ zero_extendqisi2
 283 0040 DBB2     		uxtb	r3, r3
 284 0042 C854     		strb	r0, [r1, r3]
 605:Generated_Source\PSoC5/USBMIDI_midi.c ****             USBMIDI_midiInPointer++;
 285              		.loc 1 605 0
 286 0044 1378     		ldrb	r3, [r2]	@ zero_extendqisi2
 287 0046 0133     		adds	r3, r3, #1
 288 0048 DBB2     		uxtb	r3, r3
 289 004a 1370     		strb	r3, [r2]
 290 004c D2E0     		b	.L21
 291              	.LVL25:
 292              	.L22:
 606:Generated_Source\PSoC5/USBMIDI_midi.c ****         }
 607:Generated_Source\PSoC5/USBMIDI_midi.c ****         else if((ic < USBMIDI_EVENT_LENGTH) || (ic == USBMIDI_MIDI_SYSEX))
 293              		.loc 1 607 0
 294 004e 0328     		cmp	r0, #3
 295 0050 01D9     		bls	.L24
 296              		.loc 1 607 0 is_stmt 0 discriminator 1
 297 0052 F028     		cmp	r0, #240
 298 0054 5FD1     		bne	.L25
 299              	.L24:
 608:Generated_Source\PSoC5/USBMIDI_midi.c ****         {
 609:Generated_Source\PSoC5/USBMIDI_midi.c ****             if(ic == USBMIDI_MIDI_SYSEX)
 300              		.loc 1 609 0 is_stmt 1
ARM GAS  C:\Users\JEFFSN~1\AppData\Local\Temp\ccCLplwz.s 			page 17


 301 0056 F028     		cmp	r0, #240
 302 0058 0BD1     		bne	.L26
 610:Generated_Source\PSoC5/USBMIDI_midi.c ****             {
 611:Generated_Source\PSoC5/USBMIDI_midi.c ****                 USBMIDI_midiInBuffer[USBMIDI_midiInPointer] = USBMIDI_SYSEX | cable;
 303              		.loc 1 611 0
 304 005a 674A     		ldr	r2, .L36
 305              	.LVL26:
 306 005c 1078     		ldrb	r0, [r2]	@ zero_extendqisi2
 307              	.LVL27:
 308 005e C0B2     		uxtb	r0, r0
 309 0060 43F00403 		orr	r3, r3, #4
 310              	.LVL28:
 311 0064 654E     		ldr	r6, .L36+4
 312 0066 3354     		strb	r3, [r6, r0]
 612:Generated_Source\PSoC5/USBMIDI_midi.c ****                 USBMIDI_midiInPointer++;
 313              		.loc 1 612 0
 314 0068 1378     		ldrb	r3, [r2]	@ zero_extendqisi2
 315 006a 0133     		adds	r3, r3, #1
 316 006c DBB2     		uxtb	r3, r3
 317 006e 1370     		strb	r3, [r2]
 318 0070 38E0     		b	.L27
 319              	.LVL29:
 320              	.L26:
 613:Generated_Source\PSoC5/USBMIDI_midi.c ****             }
 614:Generated_Source\PSoC5/USBMIDI_midi.c ****             else if (srcBuffZero < USBMIDI_MIDI_SYSEX)
 321              		.loc 1 614 0
 322 0072 EF2D     		cmp	r5, #239
 323 0074 0BD8     		bhi	.L28
 615:Generated_Source\PSoC5/USBMIDI_midi.c ****             {
 616:Generated_Source\PSoC5/USBMIDI_midi.c ****                 USBMIDI_midiInBuffer[USBMIDI_midiInPointer] = (srcBuffZero >> 4u) | cable;
 324              		.loc 1 616 0
 325 0076 604A     		ldr	r2, .L36
 326              	.LVL30:
 327 0078 1078     		ldrb	r0, [r2]	@ zero_extendqisi2
 328              	.LVL31:
 329 007a C0B2     		uxtb	r0, r0
 330 007c 43EA1513 		orr	r3, r3, r5, lsr #4
 331              	.LVL32:
 332 0080 5E4E     		ldr	r6, .L36+4
 333 0082 3354     		strb	r3, [r6, r0]
 617:Generated_Source\PSoC5/USBMIDI_midi.c ****                 USBMIDI_midiInPointer++;
 334              		.loc 1 617 0
 335 0084 1378     		ldrb	r3, [r2]	@ zero_extendqisi2
 336 0086 0133     		adds	r3, r3, #1
 337 0088 DBB2     		uxtb	r3, r3
 338 008a 1370     		strb	r3, [r2]
 339 008c 2AE0     		b	.L27
 340              	.LVL33:
 341              	.L28:
 618:Generated_Source\PSoC5/USBMIDI_midi.c ****             }
 619:Generated_Source\PSoC5/USBMIDI_midi.c ****             else if (srcBuffZero == USBMIDI_MIDI_TUNEREQ)
 342              		.loc 1 619 0
 343 008e F62D     		cmp	r5, #246
 344 0090 0BD1     		bne	.L29
 620:Generated_Source\PSoC5/USBMIDI_midi.c ****             {
 621:Generated_Source\PSoC5/USBMIDI_midi.c ****                 USBMIDI_midiInBuffer[USBMIDI_midiInPointer] = USBMIDI_1BYTE_COMMON | cable;
 345              		.loc 1 621 0
ARM GAS  C:\Users\JEFFSN~1\AppData\Local\Temp\ccCLplwz.s 			page 18


 346 0092 594A     		ldr	r2, .L36
 347              	.LVL34:
 348 0094 1078     		ldrb	r0, [r2]	@ zero_extendqisi2
 349              	.LVL35:
 350 0096 C0B2     		uxtb	r0, r0
 351 0098 43F00503 		orr	r3, r3, #5
 352              	.LVL36:
 353 009c 574E     		ldr	r6, .L36+4
 354 009e 3354     		strb	r3, [r6, r0]
 622:Generated_Source\PSoC5/USBMIDI_midi.c ****                 USBMIDI_midiInPointer++;
 355              		.loc 1 622 0
 356 00a0 1378     		ldrb	r3, [r2]	@ zero_extendqisi2
 357 00a2 0133     		adds	r3, r3, #1
 358 00a4 DBB2     		uxtb	r3, r3
 359 00a6 1370     		strb	r3, [r2]
 360 00a8 1CE0     		b	.L27
 361              	.LVL37:
 362              	.L29:
 623:Generated_Source\PSoC5/USBMIDI_midi.c ****             }
 624:Generated_Source\PSoC5/USBMIDI_midi.c ****             else if ((srcBuffZero == USBMIDI_MIDI_QFM) || (srcBuffZero == USBMIDI_MIDI_SONGSEL))
 363              		.loc 1 624 0
 364 00aa F12D     		cmp	r5, #241
 365 00ac 01D0     		beq	.L30
 366              		.loc 1 624 0 is_stmt 0 discriminator 1
 367 00ae F32D     		cmp	r5, #243
 368 00b0 0BD1     		bne	.L31
 369              	.L30:
 625:Generated_Source\PSoC5/USBMIDI_midi.c ****             {
 626:Generated_Source\PSoC5/USBMIDI_midi.c ****                 USBMIDI_midiInBuffer[USBMIDI_midiInPointer] = USBMIDI_2BYTE_COMMON | cable;
 370              		.loc 1 626 0 is_stmt 1
 371 00b2 514A     		ldr	r2, .L36
 372              	.LVL38:
 373 00b4 1078     		ldrb	r0, [r2]	@ zero_extendqisi2
 374              	.LVL39:
 375 00b6 C0B2     		uxtb	r0, r0
 376 00b8 43F00203 		orr	r3, r3, #2
 377              	.LVL40:
 378 00bc 4F4E     		ldr	r6, .L36+4
 379 00be 3354     		strb	r3, [r6, r0]
 627:Generated_Source\PSoC5/USBMIDI_midi.c ****                 USBMIDI_midiInPointer++;
 380              		.loc 1 627 0
 381 00c0 1378     		ldrb	r3, [r2]	@ zero_extendqisi2
 382 00c2 0133     		adds	r3, r3, #1
 383 00c4 DBB2     		uxtb	r3, r3
 384 00c6 1370     		strb	r3, [r2]
 385 00c8 0CE0     		b	.L27
 386              	.LVL41:
 387              	.L31:
 628:Generated_Source\PSoC5/USBMIDI_midi.c ****             }
 629:Generated_Source\PSoC5/USBMIDI_midi.c ****             else if (srcBuffZero == USBMIDI_MIDI_SPP)
 388              		.loc 1 629 0
 389 00ca F22D     		cmp	r5, #242
 390 00cc 0AD1     		bne	.L27
 630:Generated_Source\PSoC5/USBMIDI_midi.c ****             {
 631:Generated_Source\PSoC5/USBMIDI_midi.c ****                 USBMIDI_midiInBuffer[USBMIDI_midiInPointer] = USBMIDI_3BYTE_COMMON | cable;
 391              		.loc 1 631 0
 392 00ce 4A4A     		ldr	r2, .L36
ARM GAS  C:\Users\JEFFSN~1\AppData\Local\Temp\ccCLplwz.s 			page 19


 393              	.LVL42:
 394 00d0 1078     		ldrb	r0, [r2]	@ zero_extendqisi2
 395              	.LVL43:
 396 00d2 C0B2     		uxtb	r0, r0
 397 00d4 43F00303 		orr	r3, r3, #3
 398              	.LVL44:
 399 00d8 484E     		ldr	r6, .L36+4
 400 00da 3354     		strb	r3, [r6, r0]
 632:Generated_Source\PSoC5/USBMIDI_midi.c ****                 USBMIDI_midiInPointer++;
 401              		.loc 1 632 0
 402 00dc 1378     		ldrb	r3, [r2]	@ zero_extendqisi2
 403 00de 0133     		adds	r3, r3, #1
 404 00e0 DBB2     		uxtb	r3, r3
 405 00e2 1370     		strb	r3, [r2]
 406              	.L27:
 633:Generated_Source\PSoC5/USBMIDI_midi.c ****             }
 634:Generated_Source\PSoC5/USBMIDI_midi.c ****             else
 635:Generated_Source\PSoC5/USBMIDI_midi.c ****             {
 636:Generated_Source\PSoC5/USBMIDI_midi.c ****             }
 637:Generated_Source\PSoC5/USBMIDI_midi.c **** 
 638:Generated_Source\PSoC5/USBMIDI_midi.c ****             USBMIDI_midiInBuffer[USBMIDI_midiInPointer] = srcBuffZero;
 407              		.loc 1 638 0
 408 00e4 444B     		ldr	r3, .L36
 409 00e6 1A78     		ldrb	r2, [r3]	@ zero_extendqisi2
 410 00e8 D2B2     		uxtb	r2, r2
 411 00ea 4448     		ldr	r0, .L36+4
 412 00ec 8554     		strb	r5, [r0, r2]
 639:Generated_Source\PSoC5/USBMIDI_midi.c ****             USBMIDI_midiInPointer++;
 413              		.loc 1 639 0
 414 00ee 1A78     		ldrb	r2, [r3]	@ zero_extendqisi2
 415 00f0 0132     		adds	r2, r2, #1
 416 00f2 D2B2     		uxtb	r2, r2
 417 00f4 1A70     		strb	r2, [r3]
 640:Generated_Source\PSoC5/USBMIDI_midi.c ****             USBMIDI_midiInBuffer[USBMIDI_midiInPointer] = srcBuffOne;
 418              		.loc 1 640 0
 419 00f6 1A78     		ldrb	r2, [r3]	@ zero_extendqisi2
 420 00f8 D2B2     		uxtb	r2, r2
 421 00fa 8454     		strb	r4, [r0, r2]
 641:Generated_Source\PSoC5/USBMIDI_midi.c ****             USBMIDI_midiInPointer++;
 422              		.loc 1 641 0
 423 00fc 1A78     		ldrb	r2, [r3]	@ zero_extendqisi2
 424 00fe 0132     		adds	r2, r2, #1
 425 0100 D2B2     		uxtb	r2, r2
 426 0102 1A70     		strb	r2, [r3]
 642:Generated_Source\PSoC5/USBMIDI_midi.c ****             USBMIDI_midiInBuffer[USBMIDI_midiInPointer] = srcBuff[2u];
 427              		.loc 1 642 0
 428 0104 1A78     		ldrb	r2, [r3]	@ zero_extendqisi2
 429 0106 D2B2     		uxtb	r2, r2
 430 0108 8978     		ldrb	r1, [r1, #2]	@ zero_extendqisi2
 431              	.LVL45:
 432 010a 8154     		strb	r1, [r0, r2]
 643:Generated_Source\PSoC5/USBMIDI_midi.c ****             USBMIDI_midiInPointer++;
 433              		.loc 1 643 0
 434 010c 1A78     		ldrb	r2, [r3]	@ zero_extendqisi2
 435 010e 0132     		adds	r2, r2, #1
 436 0110 D2B2     		uxtb	r2, r2
 437 0112 1A70     		strb	r2, [r3]
ARM GAS  C:\Users\JEFFSN~1\AppData\Local\Temp\ccCLplwz.s 			page 20


 438 0114 6EE0     		b	.L21
 439              	.LVL46:
 440              	.L25:
 644:Generated_Source\PSoC5/USBMIDI_midi.c ****         }
 645:Generated_Source\PSoC5/USBMIDI_midi.c ****         else if (ic == USBMIDI_MIDI_EOSEX)
 441              		.loc 1 645 0
 442 0116 F728     		cmp	r0, #247
 443 0118 6CD1     		bne	.L21
 646:Generated_Source\PSoC5/USBMIDI_midi.c ****         {
 647:Generated_Source\PSoC5/USBMIDI_midi.c ****             switch (eventLen)
 444              		.loc 1 647 0
 445 011a 012A     		cmp	r2, #1
 446 011c 26D0     		beq	.L32
 447 011e 12B1     		cbz	r2, .L33
 448 0120 022A     		cmp	r2, #2
 449 0122 46D0     		beq	.L34
 450 0124 66E0     		b	.L21
 451              	.L33:
 648:Generated_Source\PSoC5/USBMIDI_midi.c ****             {
 649:Generated_Source\PSoC5/USBMIDI_midi.c ****                 case 0u:
 650:Generated_Source\PSoC5/USBMIDI_midi.c ****                     USBMIDI_midiInBuffer[USBMIDI_midiInPointer] = USBMIDI_SYSEX_ENDS_WITH1 | cable;
 452              		.loc 1 650 0
 453 0126 344A     		ldr	r2, .L36
 454              	.LVL47:
 455 0128 1078     		ldrb	r0, [r2]	@ zero_extendqisi2
 456              	.LVL48:
 457 012a C0B2     		uxtb	r0, r0
 458 012c 3349     		ldr	r1, .L36+4
 459              	.LVL49:
 460 012e 43F00503 		orr	r3, r3, #5
 461              	.LVL50:
 462 0132 0B54     		strb	r3, [r1, r0]
 651:Generated_Source\PSoC5/USBMIDI_midi.c ****                     USBMIDI_midiInPointer++;
 463              		.loc 1 651 0
 464 0134 1378     		ldrb	r3, [r2]	@ zero_extendqisi2
 465 0136 0133     		adds	r3, r3, #1
 466 0138 DBB2     		uxtb	r3, r3
 467 013a 1370     		strb	r3, [r2]
 652:Generated_Source\PSoC5/USBMIDI_midi.c ****                     USBMIDI_midiInBuffer[USBMIDI_midiInPointer] = USBMIDI_MIDI_EOSEX;
 468              		.loc 1 652 0
 469 013c 1378     		ldrb	r3, [r2]	@ zero_extendqisi2
 470 013e DBB2     		uxtb	r3, r3
 471 0140 F720     		movs	r0, #247
 472 0142 C854     		strb	r0, [r1, r3]
 653:Generated_Source\PSoC5/USBMIDI_midi.c ****                     USBMIDI_midiInPointer++;
 473              		.loc 1 653 0
 474 0144 1378     		ldrb	r3, [r2]	@ zero_extendqisi2
 475 0146 0133     		adds	r3, r3, #1
 476 0148 DBB2     		uxtb	r3, r3
 477 014a 1370     		strb	r3, [r2]
 654:Generated_Source\PSoC5/USBMIDI_midi.c ****                     USBMIDI_midiInBuffer[USBMIDI_midiInPointer] = 0u;
 478              		.loc 1 654 0
 479 014c 1378     		ldrb	r3, [r2]	@ zero_extendqisi2
 480 014e DBB2     		uxtb	r3, r3
 481 0150 0020     		movs	r0, #0
 482 0152 C854     		strb	r0, [r1, r3]
 655:Generated_Source\PSoC5/USBMIDI_midi.c ****                     USBMIDI_midiInPointer++;
ARM GAS  C:\Users\JEFFSN~1\AppData\Local\Temp\ccCLplwz.s 			page 21


 483              		.loc 1 655 0
 484 0154 1378     		ldrb	r3, [r2]	@ zero_extendqisi2
 485 0156 0133     		adds	r3, r3, #1
 486 0158 DBB2     		uxtb	r3, r3
 487 015a 1370     		strb	r3, [r2]
 656:Generated_Source\PSoC5/USBMIDI_midi.c ****                     USBMIDI_midiInBuffer[USBMIDI_midiInPointer] = 0u;
 488              		.loc 1 656 0
 489 015c 1378     		ldrb	r3, [r2]	@ zero_extendqisi2
 490 015e DBB2     		uxtb	r3, r3
 491 0160 C854     		strb	r0, [r1, r3]
 657:Generated_Source\PSoC5/USBMIDI_midi.c ****                     USBMIDI_midiInPointer++;
 492              		.loc 1 657 0
 493 0162 1378     		ldrb	r3, [r2]	@ zero_extendqisi2
 494 0164 0133     		adds	r3, r3, #1
 495 0166 DBB2     		uxtb	r3, r3
 496 0168 1370     		strb	r3, [r2]
 658:Generated_Source\PSoC5/USBMIDI_midi.c ****                     break;
 497              		.loc 1 658 0
 498 016a 43E0     		b	.L21
 499              	.LVL51:
 500              	.L32:
 659:Generated_Source\PSoC5/USBMIDI_midi.c ****                 case 1u:
 660:Generated_Source\PSoC5/USBMIDI_midi.c ****                     USBMIDI_midiInBuffer[USBMIDI_midiInPointer] = USBMIDI_SYSEX_ENDS_WITH2 | cable;
 501              		.loc 1 660 0
 502 016c 224A     		ldr	r2, .L36
 503              	.LVL52:
 504 016e 1078     		ldrb	r0, [r2]	@ zero_extendqisi2
 505              	.LVL53:
 506 0170 C0B2     		uxtb	r0, r0
 507 0172 2249     		ldr	r1, .L36+4
 508              	.LVL54:
 509 0174 43F00603 		orr	r3, r3, #6
 510              	.LVL55:
 511 0178 0B54     		strb	r3, [r1, r0]
 661:Generated_Source\PSoC5/USBMIDI_midi.c ****                     USBMIDI_midiInPointer++;
 512              		.loc 1 661 0
 513 017a 1378     		ldrb	r3, [r2]	@ zero_extendqisi2
 514 017c 0133     		adds	r3, r3, #1
 515 017e DBB2     		uxtb	r3, r3
 516 0180 1370     		strb	r3, [r2]
 662:Generated_Source\PSoC5/USBMIDI_midi.c ****                     USBMIDI_midiInBuffer[USBMIDI_midiInPointer] = srcBuffZero;
 517              		.loc 1 662 0
 518 0182 1378     		ldrb	r3, [r2]	@ zero_extendqisi2
 519 0184 DBB2     		uxtb	r3, r3
 520 0186 CD54     		strb	r5, [r1, r3]
 663:Generated_Source\PSoC5/USBMIDI_midi.c ****                     USBMIDI_midiInPointer++;
 521              		.loc 1 663 0
 522 0188 1378     		ldrb	r3, [r2]	@ zero_extendqisi2
 523 018a 0133     		adds	r3, r3, #1
 524 018c DBB2     		uxtb	r3, r3
 525 018e 1370     		strb	r3, [r2]
 664:Generated_Source\PSoC5/USBMIDI_midi.c ****                     USBMIDI_midiInBuffer[USBMIDI_midiInPointer] = USBMIDI_MIDI_EOSEX;
 526              		.loc 1 664 0
 527 0190 1378     		ldrb	r3, [r2]	@ zero_extendqisi2
 528 0192 DBB2     		uxtb	r3, r3
 529 0194 F720     		movs	r0, #247
 530 0196 C854     		strb	r0, [r1, r3]
ARM GAS  C:\Users\JEFFSN~1\AppData\Local\Temp\ccCLplwz.s 			page 22


 665:Generated_Source\PSoC5/USBMIDI_midi.c ****                     USBMIDI_midiInPointer++;
 531              		.loc 1 665 0
 532 0198 1378     		ldrb	r3, [r2]	@ zero_extendqisi2
 533 019a 0133     		adds	r3, r3, #1
 534 019c DBB2     		uxtb	r3, r3
 535 019e 1370     		strb	r3, [r2]
 666:Generated_Source\PSoC5/USBMIDI_midi.c ****                     USBMIDI_midiInBuffer[USBMIDI_midiInPointer] = 0u;
 536              		.loc 1 666 0
 537 01a0 1378     		ldrb	r3, [r2]	@ zero_extendqisi2
 538 01a2 DBB2     		uxtb	r3, r3
 539 01a4 0020     		movs	r0, #0
 540 01a6 C854     		strb	r0, [r1, r3]
 667:Generated_Source\PSoC5/USBMIDI_midi.c ****                     USBMIDI_midiInPointer++;
 541              		.loc 1 667 0
 542 01a8 1378     		ldrb	r3, [r2]	@ zero_extendqisi2
 543 01aa 0133     		adds	r3, r3, #1
 544 01ac DBB2     		uxtb	r3, r3
 545 01ae 1370     		strb	r3, [r2]
 668:Generated_Source\PSoC5/USBMIDI_midi.c ****                     break;
 546              		.loc 1 668 0
 547 01b0 20E0     		b	.L21
 548              	.LVL56:
 549              	.L34:
 669:Generated_Source\PSoC5/USBMIDI_midi.c ****                 case 2u:
 670:Generated_Source\PSoC5/USBMIDI_midi.c ****                     USBMIDI_midiInBuffer[USBMIDI_midiInPointer] = USBMIDI_SYSEX_ENDS_WITH3 | cable;
 550              		.loc 1 670 0
 551 01b2 114A     		ldr	r2, .L36
 552              	.LVL57:
 553 01b4 1078     		ldrb	r0, [r2]	@ zero_extendqisi2
 554              	.LVL58:
 555 01b6 C0B2     		uxtb	r0, r0
 556 01b8 1049     		ldr	r1, .L36+4
 557              	.LVL59:
 558 01ba 43F00703 		orr	r3, r3, #7
 559              	.LVL60:
 560 01be 0B54     		strb	r3, [r1, r0]
 671:Generated_Source\PSoC5/USBMIDI_midi.c ****                     USBMIDI_midiInPointer++;
 561              		.loc 1 671 0
 562 01c0 1378     		ldrb	r3, [r2]	@ zero_extendqisi2
 563 01c2 0133     		adds	r3, r3, #1
 564 01c4 DBB2     		uxtb	r3, r3
 565 01c6 1370     		strb	r3, [r2]
 672:Generated_Source\PSoC5/USBMIDI_midi.c ****                     USBMIDI_midiInBuffer[USBMIDI_midiInPointer] = srcBuffZero;
 566              		.loc 1 672 0
 567 01c8 1378     		ldrb	r3, [r2]	@ zero_extendqisi2
 568 01ca DBB2     		uxtb	r3, r3
 569 01cc CD54     		strb	r5, [r1, r3]
 673:Generated_Source\PSoC5/USBMIDI_midi.c ****                     USBMIDI_midiInPointer++;
 570              		.loc 1 673 0
 571 01ce 1378     		ldrb	r3, [r2]	@ zero_extendqisi2
 572 01d0 0133     		adds	r3, r3, #1
 573 01d2 DBB2     		uxtb	r3, r3
 574 01d4 1370     		strb	r3, [r2]
 674:Generated_Source\PSoC5/USBMIDI_midi.c ****                     USBMIDI_midiInBuffer[USBMIDI_midiInPointer] = srcBuffOne;
 575              		.loc 1 674 0
 576 01d6 1378     		ldrb	r3, [r2]	@ zero_extendqisi2
 577 01d8 DBB2     		uxtb	r3, r3
ARM GAS  C:\Users\JEFFSN~1\AppData\Local\Temp\ccCLplwz.s 			page 23


 578 01da CC54     		strb	r4, [r1, r3]
 675:Generated_Source\PSoC5/USBMIDI_midi.c ****                     USBMIDI_midiInPointer++;
 579              		.loc 1 675 0
 580 01dc 1378     		ldrb	r3, [r2]	@ zero_extendqisi2
 581 01de 0133     		adds	r3, r3, #1
 582 01e0 DBB2     		uxtb	r3, r3
 583 01e2 1370     		strb	r3, [r2]
 676:Generated_Source\PSoC5/USBMIDI_midi.c ****                     USBMIDI_midiInBuffer[USBMIDI_midiInPointer] = USBMIDI_MIDI_EOSEX;
 584              		.loc 1 676 0
 585 01e4 1378     		ldrb	r3, [r2]	@ zero_extendqisi2
 586 01e6 DBB2     		uxtb	r3, r3
 587 01e8 F720     		movs	r0, #247
 588 01ea C854     		strb	r0, [r1, r3]
 677:Generated_Source\PSoC5/USBMIDI_midi.c ****                     USBMIDI_midiInPointer++;
 589              		.loc 1 677 0
 590 01ec 1378     		ldrb	r3, [r2]	@ zero_extendqisi2
 591 01ee 0133     		adds	r3, r3, #1
 592 01f0 DBB2     		uxtb	r3, r3
 593 01f2 1370     		strb	r3, [r2]
 594              	.LVL61:
 595              	.L21:
 678:Generated_Source\PSoC5/USBMIDI_midi.c ****                     break;
 679:Generated_Source\PSoC5/USBMIDI_midi.c ****                 default:
 680:Generated_Source\PSoC5/USBMIDI_midi.c ****                     break;
 681:Generated_Source\PSoC5/USBMIDI_midi.c ****             }
 682:Generated_Source\PSoC5/USBMIDI_midi.c ****         }
 683:Generated_Source\PSoC5/USBMIDI_midi.c ****         else
 684:Generated_Source\PSoC5/USBMIDI_midi.c ****         {
 685:Generated_Source\PSoC5/USBMIDI_midi.c ****         }
 686:Generated_Source\PSoC5/USBMIDI_midi.c ****     }
 596              		.loc 1 686 0
 597 01f4 70BC     		pop	{r4, r5, r6}
 598              		.cfi_restore 6
 599              		.cfi_restore 5
 600              		.cfi_restore 4
 601              		.cfi_def_cfa_offset 0
 602              	.LVL62:
 603 01f6 7047     		bx	lr
 604              	.L37:
 605              		.align	2
 606              	.L36:
 607 01f8 00000000 		.word	USBMIDI_midiInPointer
 608 01fc 00000000 		.word	USBMIDI_midiInBuffer
 609              		.cfi_endproc
 610              	.LFE5:
 611              		.size	USBMIDI_PrepareInBuffer, .-USBMIDI_PrepareInBuffer
 612              		.section	.text.USBMIDI_PutUsbMidiIn,"ax",%progbits
 613              		.align	2
 614              		.global	USBMIDI_PutUsbMidiIn
 615              		.thumb
 616              		.thumb_func
 617              		.type	USBMIDI_PutUsbMidiIn, %function
 618              	USBMIDI_PutUsbMidiIn:
 619              	.LFB4:
 476:Generated_Source\PSoC5/USBMIDI_midi.c ****         uint8 retError = USBMIDI_FALSE;
 620              		.loc 1 476 0
 621              		.cfi_startproc
ARM GAS  C:\Users\JEFFSN~1\AppData\Local\Temp\ccCLplwz.s 			page 24


 622              		@ args = 0, pretend = 0, frame = 0
 623              		@ frame_needed = 0, uses_anonymous_args = 0
 624              	.LVL63:
 625 0000 2DE9F041 		push	{r4, r5, r6, r7, r8, lr}
 626              		.cfi_def_cfa_offset 24
 627              		.cfi_offset 4, -24
 628              		.cfi_offset 5, -20
 629              		.cfi_offset 6, -16
 630              		.cfi_offset 7, -12
 631              		.cfi_offset 8, -8
 632              		.cfi_offset 14, -4
 633 0004 0446     		mov	r4, r0
 634 0006 0E46     		mov	r6, r1
 635 0008 1746     		mov	r7, r2
 636              	.LVL64:
 487:Generated_Source\PSoC5/USBMIDI_midi.c ****                     (USBMIDI_EP[USBMIDI_midi_in_ep].bufferSize - USBMIDI_EVENT_LENGTH))
 637              		.loc 1 487 0
 638 000a 374B     		ldr	r3, .L48
 639 000c 1978     		ldrb	r1, [r3]	@ zero_extendqisi2
 640              	.LVL65:
 641 000e C9B2     		uxtb	r1, r1
 488:Generated_Source\PSoC5/USBMIDI_midi.c ****         {
 642              		.loc 1 488 0
 643 0010 364B     		ldr	r3, .L48+4
 644 0012 1B78     		ldrb	r3, [r3]	@ zero_extendqisi2
 645 0014 03EB4303 		add	r3, r3, r3, lsl #1
 646 0018 9A00     		lsls	r2, r3, #2
 647              	.LVL66:
 648 001a 354B     		ldr	r3, .L48+8
 649 001c 1A44     		add	r2, r2, r3
 650 001e 1389     		ldrh	r3, [r2, #8]
 651 0020 9BB2     		uxth	r3, r3
 652 0022 043B     		subs	r3, r3, #4
 487:Generated_Source\PSoC5/USBMIDI_midi.c ****                     (USBMIDI_EP[USBMIDI_midi_in_ep].bufferSize - USBMIDI_EVENT_LENGTH))
 653              		.loc 1 487 0
 654 0024 9942     		cmp	r1, r3
 655 0026 01D9     		bls	.L39
 490:Generated_Source\PSoC5/USBMIDI_midi.c ****         }
 656              		.loc 1 490 0
 657 0028 FFF7FEFF 		bl	USBMIDI_MIDI_IN_EP_Service
 658              	.LVL67:
 659              	.L39:
 493:Generated_Source\PSoC5/USBMIDI_midi.c ****                     (USBMIDI_EP[USBMIDI_midi_in_ep].bufferSize - USBMIDI_EVENT_LENGTH))
 660              		.loc 1 493 0
 661 002c 2E4B     		ldr	r3, .L48
 662 002e 1978     		ldrb	r1, [r3]	@ zero_extendqisi2
 663 0030 C9B2     		uxtb	r1, r1
 494:Generated_Source\PSoC5/USBMIDI_midi.c ****         {
 664              		.loc 1 494 0
 665 0032 2E4B     		ldr	r3, .L48+4
 666 0034 1B78     		ldrb	r3, [r3]	@ zero_extendqisi2
 667 0036 03EB4303 		add	r3, r3, r3, lsl #1
 668 003a 9A00     		lsls	r2, r3, #2
 669 003c 2C4B     		ldr	r3, .L48+8
 670 003e 1A44     		add	r2, r2, r3
 671 0040 1389     		ldrh	r3, [r2, #8]
 672 0042 9BB2     		uxth	r3, r3
ARM GAS  C:\Users\JEFFSN~1\AppData\Local\Temp\ccCLplwz.s 			page 25


 673 0044 043B     		subs	r3, r3, #4
 493:Generated_Source\PSoC5/USBMIDI_midi.c ****                     (USBMIDI_EP[USBMIDI_midi_in_ep].bufferSize - USBMIDI_EVENT_LENGTH))
 674              		.loc 1 493 0
 675 0046 9942     		cmp	r1, r3
 676 0048 48D8     		bhi	.L44
 496:Generated_Source\PSoC5/USBMIDI_midi.c ****             {
 677              		.loc 1 496 0
 678 004a 231F     		subs	r3, r4, #4
 679 004c DBB2     		uxtb	r3, r3
 680 004e EB2B     		cmp	r3, #235
 681 0050 08D9     		bls	.L45
 498:Generated_Source\PSoC5/USBMIDI_midi.c ****             }
 682              		.loc 1 498 0
 683 0052 3B46     		mov	r3, r7
 684 0054 2246     		mov	r2, r4
 685 0056 3146     		mov	r1, r6
 686 0058 2046     		mov	r0, r4
 687 005a FFF7FEFF 		bl	USBMIDI_PrepareInBuffer
 688              	.LVL68:
 477:Generated_Source\PSoC5/USBMIDI_midi.c **** 
 689              		.loc 1 477 0
 690 005e 4FF00008 		mov	r8, #0
 691 0062 3DE0     		b	.L40
 692              	.L45:
 693 0064 0025     		movs	r5, #0
 694              	.LVL69:
 695              	.L41:
 696              	.LBB2:
 507:Generated_Source\PSoC5/USBMIDI_midi.c ****                                                      USBMIDI_EVENT_BYTE3, cable);
 697              		.loc 1 507 0
 698 0066 3B46     		mov	r3, r7
 699 0068 0322     		movs	r2, #3
 700 006a 7119     		adds	r1, r6, r5
 701 006c F020     		movs	r0, #240
 702 006e FFF7FEFF 		bl	USBMIDI_PrepareInBuffer
 703              	.LVL70:
 511:Generated_Source\PSoC5/USBMIDI_midi.c ****                     idx += USBMIDI_EVENT_BYTE3;
 704              		.loc 1 511 0
 705 0072 033C     		subs	r4, r4, #3
 706              	.LVL71:
 707 0074 E4B2     		uxtb	r4, r4
 708              	.LVL72:
 512:Generated_Source\PSoC5/USBMIDI_midi.c **** 
 709              		.loc 1 512 0
 710 0076 0335     		adds	r5, r5, #3
 711              	.LVL73:
 712 0078 EDB2     		uxtb	r5, r5
 713              	.LVL74:
 514:Generated_Source\PSoC5/USBMIDI_midi.c ****                         (USBMIDI_EP[USBMIDI_midi_in_ep].bufferSize - USBMIDI_EVENT_LENGTH))
 714              		.loc 1 514 0
 715 007a 1B4B     		ldr	r3, .L48
 716 007c 1978     		ldrb	r1, [r3]	@ zero_extendqisi2
 717 007e C9B2     		uxtb	r1, r1
 515:Generated_Source\PSoC5/USBMIDI_midi.c ****                     {
 718              		.loc 1 515 0
 719 0080 1A4B     		ldr	r3, .L48+4
 720 0082 1B78     		ldrb	r3, [r3]	@ zero_extendqisi2
ARM GAS  C:\Users\JEFFSN~1\AppData\Local\Temp\ccCLplwz.s 			page 26


 721 0084 03EB4303 		add	r3, r3, r3, lsl #1
 722 0088 9A00     		lsls	r2, r3, #2
 723 008a 194B     		ldr	r3, .L48+8
 724 008c 1A44     		add	r2, r2, r3
 725 008e 1389     		ldrh	r3, [r2, #8]
 726 0090 9BB2     		uxth	r3, r3
 727 0092 043B     		subs	r3, r3, #4
 514:Generated_Source\PSoC5/USBMIDI_midi.c ****                         (USBMIDI_EP[USBMIDI_midi_in_ep].bufferSize - USBMIDI_EVENT_LENGTH))
 728              		.loc 1 514 0
 729 0094 9942     		cmp	r1, r3
 730 0096 10D9     		bls	.L42
 518:Generated_Source\PSoC5/USBMIDI_midi.c **** 
 731              		.loc 1 518 0
 732 0098 FFF7FEFF 		bl	USBMIDI_MIDI_IN_EP_Service
 733              	.LVL75:
 520:Generated_Source\PSoC5/USBMIDI_midi.c ****                            (USBMIDI_EP[USBMIDI_midi_in_ep].bufferSize - USBMIDI_EVENT_LENGTH))
 734              		.loc 1 520 0
 735 009c 124B     		ldr	r3, .L48
 736 009e 1978     		ldrb	r1, [r3]	@ zero_extendqisi2
 737 00a0 C9B2     		uxtb	r1, r1
 521:Generated_Source\PSoC5/USBMIDI_midi.c ****                         {
 738              		.loc 1 521 0
 739 00a2 124B     		ldr	r3, .L48+4
 740 00a4 1B78     		ldrb	r3, [r3]	@ zero_extendqisi2
 741 00a6 03EB4303 		add	r3, r3, r3, lsl #1
 742 00aa 9A00     		lsls	r2, r3, #2
 743 00ac 104B     		ldr	r3, .L48+8
 744 00ae 1A44     		add	r2, r2, r3
 745 00b0 1389     		ldrh	r3, [r2, #8]
 746 00b2 9BB2     		uxth	r3, r3
 747 00b4 043B     		subs	r3, r3, #4
 520:Generated_Source\PSoC5/USBMIDI_midi.c ****                            (USBMIDI_EP[USBMIDI_midi_in_ep].bufferSize - USBMIDI_EVENT_LENGTH))
 748              		.loc 1 520 0
 749 00b6 9942     		cmp	r1, r3
 750 00b8 04D8     		bhi	.L46
 751              	.L42:
 529:Generated_Source\PSoC5/USBMIDI_midi.c **** 
 752              		.loc 1 529 0
 753 00ba 022C     		cmp	r4, #2
 754 00bc D3D8     		bhi	.L41
 755              	.LBE2:
 477:Generated_Source\PSoC5/USBMIDI_midi.c **** 
 756              		.loc 1 477 0
 757 00be 4FF00008 		mov	r8, #0
 758              	.LBB3:
 759 00c2 01E0     		b	.L43
 760              	.L46:
 524:Generated_Source\PSoC5/USBMIDI_midi.c ****                             break;
 761              		.loc 1 524 0
 762 00c4 4FF00108 		mov	r8, #1
 763              	.L43:
 764              	.LVL76:
 531:Generated_Source\PSoC5/USBMIDI_midi.c ****                 {
 765              		.loc 1 531 0
 766 00c8 B8F1000F 		cmp	r8, #0
 767 00cc 08D1     		bne	.L40
 534:Generated_Source\PSoC5/USBMIDI_midi.c ****                 }
ARM GAS  C:\Users\JEFFSN~1\AppData\Local\Temp\ccCLplwz.s 			page 27


 768              		.loc 1 534 0
 769 00ce 3B46     		mov	r3, r7
 770 00d0 2246     		mov	r2, r4
 771 00d2 7119     		adds	r1, r6, r5
 772 00d4 F720     		movs	r0, #247
 773 00d6 FFF7FEFF 		bl	USBMIDI_PrepareInBuffer
 774              	.LVL77:
 775 00da 01E0     		b	.L40
 776              	.LVL78:
 777              	.L44:
 778              	.LBE3:
 541:Generated_Source\PSoC5/USBMIDI_midi.c ****         }
 779              		.loc 1 541 0
 780 00dc 4FF00108 		mov	r8, #1
 781              	.LVL79:
 782              	.L40:
 552:Generated_Source\PSoC5/USBMIDI_midi.c **** 
 783              		.loc 1 552 0
 784 00e0 4046     		mov	r0, r8
 785 00e2 BDE8F081 		pop	{r4, r5, r6, r7, r8, pc}
 786              	.LVL80:
 787              	.L49:
 788 00e6 00BF     		.align	2
 789              	.L48:
 790 00e8 00000000 		.word	USBMIDI_midiInPointer
 791 00ec 00000000 		.word	USBMIDI_midi_in_ep
 792 00f0 00000000 		.word	USBMIDI_EP
 793              		.cfi_endproc
 794              	.LFE4:
 795              		.size	USBMIDI_PutUsbMidiIn, .-USBMIDI_PutUsbMidiIn
 796              		.comm	USBMIDI_midiOutBuffer,32,4
 797              		.comm	USBMIDI_midi_out_ep,1,1
 798              		.comm	USBMIDI_midiInBuffer,32,4
 799              		.comm	USBMIDI_midi_in_ep,1,1
 800              		.comm	USBMIDI_midiInPointer,1,1
 801              		.text
 802              	.Letext0:
 803              		.file 2 "Generated_Source\\PSoC5\\cytypes.h"
 804              		.file 3 "Generated_Source\\PSoC5\\USBMIDI.h"
 805              		.file 4 "Generated_Source\\PSoC5\\USBMIDI_pvt.h"
 806              		.file 5 "Generated_Source\\PSoC5\\USBMIDI_midi.h"